
bin\linalg.dll:     file format pei-x86-64


Disassembly of section .text:

0000000065381000 <pre_c_init>:
    65381000:	53                   	push   %rbx
    65381001:	48 83 ec 20          	sub    $0x20,%rsp
    65381005:	b9 00 01 00 00       	mov    $0x100,%ecx
    6538100a:	e8 39 23 00 00       	callq  65383348 <malloc>
    6538100f:	48 89 c1             	mov    %rax,%rcx
    65381012:	48 89 c3             	mov    %rax,%rbx
    65381015:	e8 a6 12 00 00       	callq  653822c0 <_encode_pointer>
    6538101a:	48 8b 15 0f 42 00 00 	mov    0x420f(%rip),%rdx        # 65385230 <.refptr.__onexitbegin>
    65381021:	48 85 db             	test   %rbx,%rbx
    65381024:	48 89 02             	mov    %rax,(%rdx)
    65381027:	48 8b 15 12 42 00 00 	mov    0x4212(%rip),%rdx        # 65385240 <.refptr.__onexitend>
    6538102e:	48 89 02             	mov    %rax,(%rdx)
    65381031:	74 0f                	je     65381042 <pre_c_init+0x42>
    65381033:	31 c0                	xor    %eax,%eax
    65381035:	48 c7 03 00 00 00 00 	movq   $0x0,(%rbx)
    6538103c:	48 83 c4 20          	add    $0x20,%rsp
    65381040:	5b                   	pop    %rbx
    65381041:	c3                   	retq   
    65381042:	b8 01 00 00 00       	mov    $0x1,%eax
    65381047:	48 83 c4 20          	add    $0x20,%rsp
    6538104b:	5b                   	pop    %rbx
    6538104c:	c3                   	retq   
    6538104d:	0f 1f 00             	nopl   (%rax)

0000000065381050 <_CRT_INIT>:
    65381050:	41 55                	push   %r13
    65381052:	41 54                	push   %r12
    65381054:	55                   	push   %rbp
    65381055:	57                   	push   %rdi
    65381056:	56                   	push   %rsi
    65381057:	53                   	push   %rbx
    65381058:	48 83 ec 28          	sub    $0x28,%rsp
    6538105c:	85 d2                	test   %edx,%edx
    6538105e:	49 89 cc             	mov    %rcx,%r12
    65381061:	4d 89 c5             	mov    %r8,%r13
    65381064:	75 7a                	jne    653810e0 <_CRT_INIT+0x90>
    65381066:	8b 05 94 6f 00 00    	mov    0x6f94(%rip),%eax        # 65388000 <__bss_start__>
    6538106c:	85 c0                	test   %eax,%eax
    6538106e:	0f 8e 1f 01 00 00    	jle    65381193 <_CRT_INIT+0x143>
    65381074:	83 e8 01             	sub    $0x1,%eax
    65381077:	48 8b 1d 92 41 00 00 	mov    0x4192(%rip),%rbx        # 65385210 <.refptr.__native_startup_lock>
    6538107e:	31 ff                	xor    %edi,%edi
    65381080:	89 05 7a 6f 00 00    	mov    %eax,0x6f7a(%rip)        # 65388000 <__bss_start__>
    65381086:	be 01 00 00 00       	mov    $0x1,%esi
    6538108b:	48 8b 2d 9a 91 00 00 	mov    0x919a(%rip),%rbp        # 6538a22c <__imp_Sleep>
    65381092:	eb 07                	jmp    6538109b <_CRT_INIT+0x4b>
    65381094:	b9 e8 03 00 00       	mov    $0x3e8,%ecx
    65381099:	ff d5                	callq  *%rbp
    6538109b:	48 89 f8             	mov    %rdi,%rax
    6538109e:	f0 48 0f b1 33       	lock cmpxchg %rsi,(%rbx)
    653810a3:	48 85 c0             	test   %rax,%rax
    653810a6:	75 ec                	jne    65381094 <_CRT_INIT+0x44>
    653810a8:	48 8b 3d 71 41 00 00 	mov    0x4171(%rip),%rdi        # 65385220 <.refptr.__native_startup_state>
    653810af:	8b 07                	mov    (%rdi),%eax
    653810b1:	83 f8 02             	cmp    $0x2,%eax
    653810b4:	0f 84 e6 00 00 00    	je     653811a0 <_CRT_INIT+0x150>
    653810ba:	b9 1f 00 00 00       	mov    $0x1f,%ecx
    653810bf:	e8 cc 22 00 00       	callq  65383390 <_amsg_exit>
    653810c4:	b8 01 00 00 00       	mov    $0x1,%eax
    653810c9:	48 83 c4 28          	add    $0x28,%rsp
    653810cd:	5b                   	pop    %rbx
    653810ce:	5e                   	pop    %rsi
    653810cf:	5f                   	pop    %rdi
    653810d0:	5d                   	pop    %rbp
    653810d1:	41 5c                	pop    %r12
    653810d3:	41 5d                	pop    %r13
    653810d5:	c3                   	retq   
    653810d6:	66 2e 0f 1f 84 00 00 	nopw   %cs:0x0(%rax,%rax,1)
    653810dd:	00 00 00 
    653810e0:	83 fa 01             	cmp    $0x1,%edx
    653810e3:	b8 01 00 00 00       	mov    $0x1,%eax
    653810e8:	75 df                	jne    653810c9 <_CRT_INIT+0x79>
    653810ea:	65 48 8b 04 25 30 00 	mov    %gs:0x30,%rax
    653810f1:	00 00 
    653810f3:	48 8b 1d 16 41 00 00 	mov    0x4116(%rip),%rbx        # 65385210 <.refptr.__native_startup_lock>
    653810fa:	48 8b 70 08          	mov    0x8(%rax),%rsi
    653810fe:	31 ff                	xor    %edi,%edi
    65381100:	48 8b 2d 25 91 00 00 	mov    0x9125(%rip),%rbp        # 6538a22c <__imp_Sleep>
    65381107:	eb 17                	jmp    65381120 <_CRT_INIT+0xd0>
    65381109:	0f 1f 80 00 00 00 00 	nopl   0x0(%rax)
    65381110:	48 39 c6             	cmp    %rax,%rsi
    65381113:	0f 84 07 01 00 00    	je     65381220 <_CRT_INIT+0x1d0>
    65381119:	b9 e8 03 00 00       	mov    $0x3e8,%ecx
    6538111e:	ff d5                	callq  *%rbp
    65381120:	48 89 f8             	mov    %rdi,%rax
    65381123:	f0 48 0f b1 33       	lock cmpxchg %rsi,(%rbx)
    65381128:	48 85 c0             	test   %rax,%rax
    6538112b:	75 e3                	jne    65381110 <_CRT_INIT+0xc0>
    6538112d:	31 f6                	xor    %esi,%esi
    6538112f:	48 8b 3d ea 40 00 00 	mov    0x40ea(%rip),%rdi        # 65385220 <.refptr.__native_startup_state>
    65381136:	8b 07                	mov    (%rdi),%eax
    65381138:	83 f8 01             	cmp    $0x1,%eax
    6538113b:	0f 84 1d 01 00 00    	je     6538125e <_CRT_INIT+0x20e>
    65381141:	8b 07                	mov    (%rdi),%eax
    65381143:	85 c0                	test   %eax,%eax
    65381145:	0f 84 f5 00 00 00    	je     65381240 <_CRT_INIT+0x1f0>
    6538114b:	8b 07                	mov    (%rdi),%eax
    6538114d:	83 f8 01             	cmp    $0x1,%eax
    65381150:	0f 84 17 01 00 00    	je     6538126d <_CRT_INIT+0x21d>
    65381156:	85 f6                	test   %esi,%esi
    65381158:	0f 84 d2 00 00 00    	je     65381230 <_CRT_INIT+0x1e0>
    6538115e:	48 8b 05 6b 40 00 00 	mov    0x406b(%rip),%rax        # 653851d0 <.refptr.__dyn_tls_init_callback>
    65381165:	48 8b 00             	mov    (%rax),%rax
    65381168:	48 85 c0             	test   %rax,%rax
    6538116b:	74 0d                	je     6538117a <_CRT_INIT+0x12a>
    6538116d:	4d 89 e8             	mov    %r13,%r8
    65381170:	ba 02 00 00 00       	mov    $0x2,%edx
    65381175:	4c 89 e1             	mov    %r12,%rcx
    65381178:	ff d0                	callq  *%rax
    6538117a:	83 05 7f 6e 00 00 01 	addl   $0x1,0x6e7f(%rip)        # 65388000 <__bss_start__>
    65381181:	b8 01 00 00 00       	mov    $0x1,%eax
    65381186:	48 83 c4 28          	add    $0x28,%rsp
    6538118a:	5b                   	pop    %rbx
    6538118b:	5e                   	pop    %rsi
    6538118c:	5f                   	pop    %rdi
    6538118d:	5d                   	pop    %rbp
    6538118e:	41 5c                	pop    %r12
    65381190:	41 5d                	pop    %r13
    65381192:	c3                   	retq   
    65381193:	31 c0                	xor    %eax,%eax
    65381195:	e9 2f ff ff ff       	jmpq   653810c9 <_CRT_INIT+0x79>
    6538119a:	66 0f 1f 44 00 00    	nopw   0x0(%rax,%rax,1)
    653811a0:	4c 8b 25 89 40 00 00 	mov    0x4089(%rip),%r12        # 65385230 <.refptr.__onexitbegin>
    653811a7:	49 8b 0c 24          	mov    (%r12),%rcx
    653811ab:	e8 00 11 00 00       	callq  653822b0 <_decode_pointer>
    653811b0:	48 85 c0             	test   %rax,%rax
    653811b3:	48 89 c5             	mov    %rax,%rbp
    653811b6:	74 47                	je     653811ff <_CRT_INIT+0x1af>
    653811b8:	4c 8b 2d 81 40 00 00 	mov    0x4081(%rip),%r13        # 65385240 <.refptr.__onexitend>
    653811bf:	49 8b 4d 00          	mov    0x0(%r13),%rcx
    653811c3:	e8 e8 10 00 00       	callq  653822b0 <_decode_pointer>
    653811c8:	48 89 c6             	mov    %rax,%rsi
    653811cb:	48 83 ee 08          	sub    $0x8,%rsi
    653811cf:	48 39 f5             	cmp    %rsi,%rbp
    653811d2:	77 13                	ja     653811e7 <_CRT_INIT+0x197>
    653811d4:	48 8b 06             	mov    (%rsi),%rax
    653811d7:	48 85 c0             	test   %rax,%rax
    653811da:	74 ef                	je     653811cb <_CRT_INIT+0x17b>
    653811dc:	48 83 ee 08          	sub    $0x8,%rsi
    653811e0:	ff d0                	callq  *%rax
    653811e2:	48 39 f5             	cmp    %rsi,%rbp
    653811e5:	76 ed                	jbe    653811d4 <_CRT_INIT+0x184>
    653811e7:	48 89 e9             	mov    %rbp,%rcx
    653811ea:	e8 69 21 00 00       	callq  65383358 <free>
    653811ef:	49 c7 45 00 00 00 00 	movq   $0x0,0x0(%r13)
    653811f6:	00 
    653811f7:	49 c7 04 24 00 00 00 	movq   $0x0,(%r12)
    653811fe:	00 
    653811ff:	31 c0                	xor    %eax,%eax
    65381201:	c7 07 00 00 00 00    	movl   $0x0,(%rdi)
    65381207:	48 87 03             	xchg   %rax,(%rbx)
    6538120a:	b8 01 00 00 00       	mov    $0x1,%eax
    6538120f:	48 83 c4 28          	add    $0x28,%rsp
    65381213:	5b                   	pop    %rbx
    65381214:	5e                   	pop    %rsi
    65381215:	5f                   	pop    %rdi
    65381216:	5d                   	pop    %rbp
    65381217:	41 5c                	pop    %r12
    65381219:	41 5d                	pop    %r13
    6538121b:	c3                   	retq   
    6538121c:	0f 1f 40 00          	nopl   0x0(%rax)
    65381220:	be 01 00 00 00       	mov    $0x1,%esi
    65381225:	e9 05 ff ff ff       	jmpq   6538112f <_CRT_INIT+0xdf>
    6538122a:	66 0f 1f 44 00 00    	nopw   0x0(%rax,%rax,1)
    65381230:	31 c0                	xor    %eax,%eax
    65381232:	48 87 03             	xchg   %rax,(%rbx)
    65381235:	e9 24 ff ff ff       	jmpq   6538115e <_CRT_INIT+0x10e>
    6538123a:	66 0f 1f 44 00 00    	nopw   0x0(%rax,%rax,1)
    65381240:	48 8b 15 39 40 00 00 	mov    0x4039(%rip),%rdx        # 65385280 <.refptr.__xi_z>
    65381247:	48 8b 0d 22 40 00 00 	mov    0x4022(%rip),%rcx        # 65385270 <.refptr.__xi_a>
    6538124e:	c7 07 01 00 00 00    	movl   $0x1,(%rdi)
    65381254:	e8 2f 21 00 00       	callq  65383388 <_initterm>
    65381259:	e9 ed fe ff ff       	jmpq   6538114b <_CRT_INIT+0xfb>
    6538125e:	b9 1f 00 00 00       	mov    $0x1f,%ecx
    65381263:	e8 28 21 00 00       	callq  65383390 <_amsg_exit>
    65381268:	e9 de fe ff ff       	jmpq   6538114b <_CRT_INIT+0xfb>
    6538126d:	48 8b 15 ec 3f 00 00 	mov    0x3fec(%rip),%rdx        # 65385260 <.refptr.__xc_z>
    65381274:	48 8b 0d d5 3f 00 00 	mov    0x3fd5(%rip),%rcx        # 65385250 <.refptr.__xc_a>
    6538127b:	e8 08 21 00 00       	callq  65383388 <_initterm>
    65381280:	c7 07 02 00 00 00    	movl   $0x2,(%rdi)
    65381286:	e9 cb fe ff ff       	jmpq   65381156 <_CRT_INIT+0x106>
    6538128b:	0f 1f 44 00 00       	nopl   0x0(%rax,%rax,1)

0000000065381290 <__DllMainCRTStartup>:
    65381290:	41 54                	push   %r12
    65381292:	55                   	push   %rbp
    65381293:	57                   	push   %rdi
    65381294:	56                   	push   %rsi
    65381295:	53                   	push   %rbx
    65381296:	48 83 ec 20          	sub    $0x20,%rsp
    6538129a:	48 8b 35 5f 3f 00 00 	mov    0x3f5f(%rip),%rsi        # 65385200 <.refptr.__native_dllmain_reason>
    653812a1:	85 d2                	test   %edx,%edx
    653812a3:	48 89 cf             	mov    %rcx,%rdi
    653812a6:	89 d3                	mov    %edx,%ebx
    653812a8:	4c 89 c5             	mov    %r8,%rbp
    653812ab:	89 16                	mov    %edx,(%rsi)
    653812ad:	75 61                	jne    65381310 <__DllMainCRTStartup+0x80>
    653812af:	8b 05 4b 6d 00 00    	mov    0x6d4b(%rip),%eax        # 65388000 <__bss_start__>
    653812b5:	85 c0                	test   %eax,%eax
    653812b7:	74 3f                	je     653812f8 <__DllMainCRTStartup+0x68>
    653812b9:	e8 e2 11 00 00       	callq  653824a0 <_pei386_runtime_relocator>
    653812be:	49 89 e8             	mov    %rbp,%r8
    653812c1:	31 d2                	xor    %edx,%edx
    653812c3:	48 89 f9             	mov    %rdi,%rcx
    653812c6:	e8 45 20 00 00       	callq  65383310 <DllMain>
    653812cb:	41 89 c4             	mov    %eax,%r12d
    653812ce:	85 db                	test   %ebx,%ebx
    653812d0:	74 05                	je     653812d7 <__DllMainCRTStartup+0x47>
    653812d2:	83 fb 03             	cmp    $0x3,%ebx
    653812d5:	75 24                	jne    653812fb <__DllMainCRTStartup+0x6b>
    653812d7:	49 89 e8             	mov    %rbp,%r8
    653812da:	89 da                	mov    %ebx,%edx
    653812dc:	48 89 f9             	mov    %rdi,%rcx
    653812df:	e8 1c 20 00 00       	callq  65383300 <DllEntryPoint>
    653812e4:	49 89 e8             	mov    %rbp,%r8
    653812e7:	89 da                	mov    %ebx,%edx
    653812e9:	48 89 f9             	mov    %rdi,%rcx
    653812ec:	41 89 c4             	mov    %eax,%r12d
    653812ef:	e8 5c fd ff ff       	callq  65381050 <_CRT_INIT>
    653812f4:	85 c0                	test   %eax,%eax
    653812f6:	75 03                	jne    653812fb <__DllMainCRTStartup+0x6b>
    653812f8:	45 31 e4             	xor    %r12d,%r12d
    653812fb:	44 89 e0             	mov    %r12d,%eax
    653812fe:	c7 06 ff ff ff ff    	movl   $0xffffffff,(%rsi)
    65381304:	48 83 c4 20          	add    $0x20,%rsp
    65381308:	5b                   	pop    %rbx
    65381309:	5e                   	pop    %rsi
    6538130a:	5f                   	pop    %rdi
    6538130b:	5d                   	pop    %rbp
    6538130c:	41 5c                	pop    %r12
    6538130e:	c3                   	retq   
    6538130f:	90                   	nop
    65381310:	e8 8b 11 00 00       	callq  653824a0 <_pei386_runtime_relocator>
    65381315:	8d 43 ff             	lea    -0x1(%rbx),%eax
    65381318:	49 89 e8             	mov    %rbp,%r8
    6538131b:	89 da                	mov    %ebx,%edx
    6538131d:	48 89 f9             	mov    %rdi,%rcx
    65381320:	83 f8 01             	cmp    $0x1,%eax
    65381323:	77 a1                	ja     653812c6 <__DllMainCRTStartup+0x36>
    65381325:	e8 26 fd ff ff       	callq  65381050 <_CRT_INIT>
    6538132a:	85 c0                	test   %eax,%eax
    6538132c:	74 ca                	je     653812f8 <__DllMainCRTStartup+0x68>
    6538132e:	49 89 e8             	mov    %rbp,%r8
    65381331:	89 da                	mov    %ebx,%edx
    65381333:	48 89 f9             	mov    %rdi,%rcx
    65381336:	e8 c5 1f 00 00       	callq  65383300 <DllEntryPoint>
    6538133b:	85 c0                	test   %eax,%eax
    6538133d:	41 89 c4             	mov    %eax,%r12d
    65381340:	75 1e                	jne    65381360 <__DllMainCRTStartup+0xd0>
    65381342:	83 fb 01             	cmp    $0x1,%ebx
    65381345:	75 b1                	jne    653812f8 <__DllMainCRTStartup+0x68>
    65381347:	49 89 e8             	mov    %rbp,%r8
    6538134a:	31 d2                	xor    %edx,%edx
    6538134c:	48 89 f9             	mov    %rdi,%rcx
    6538134f:	e8 fc fc ff ff       	callq  65381050 <_CRT_INIT>
    65381354:	eb a5                	jmp    653812fb <__DllMainCRTStartup+0x6b>
    65381356:	66 2e 0f 1f 84 00 00 	nopw   %cs:0x0(%rax,%rax,1)
    6538135d:	00 00 00 
    65381360:	83 fb 01             	cmp    $0x1,%ebx
    65381363:	75 4c                	jne    653813b1 <__DllMainCRTStartup+0x121>
    65381365:	e8 96 0c 00 00       	callq  65382000 <__main>
    6538136a:	49 89 e8             	mov    %rbp,%r8
    6538136d:	ba 01 00 00 00       	mov    $0x1,%edx
    65381372:	48 89 f9             	mov    %rdi,%rcx
    65381375:	e8 96 1f 00 00       	callq  65383310 <DllMain>
    6538137a:	85 c0                	test   %eax,%eax
    6538137c:	41 89 c4             	mov    %eax,%r12d
    6538137f:	0f 85 76 ff ff ff    	jne    653812fb <__DllMainCRTStartup+0x6b>
    65381385:	49 89 e8             	mov    %rbp,%r8
    65381388:	31 d2                	xor    %edx,%edx
    6538138a:	48 89 f9             	mov    %rdi,%rcx
    6538138d:	e8 7e 1f 00 00       	callq  65383310 <DllMain>
    65381392:	49 89 e8             	mov    %rbp,%r8
    65381395:	31 d2                	xor    %edx,%edx
    65381397:	48 89 f9             	mov    %rdi,%rcx
    6538139a:	e8 61 1f 00 00       	callq  65383300 <DllEntryPoint>
    6538139f:	49 89 e8             	mov    %rbp,%r8
    653813a2:	31 d2                	xor    %edx,%edx
    653813a4:	48 89 f9             	mov    %rdi,%rcx
    653813a7:	e8 a4 fc ff ff       	callq  65381050 <_CRT_INIT>
    653813ac:	e9 1d ff ff ff       	jmpq   653812ce <__DllMainCRTStartup+0x3e>
    653813b1:	49 89 e8             	mov    %rbp,%r8
    653813b4:	ba 02 00 00 00       	mov    $0x2,%edx
    653813b9:	48 89 f9             	mov    %rdi,%rcx
    653813bc:	e8 4f 1f 00 00       	callq  65383310 <DllMain>
    653813c1:	41 89 c4             	mov    %eax,%r12d
    653813c4:	e9 05 ff ff ff       	jmpq   653812ce <__DllMainCRTStartup+0x3e>
    653813c9:	0f 1f 80 00 00 00 00 	nopl   0x0(%rax)

00000000653813d0 <DllMainCRTStartup>:
    653813d0:	48 83 ec 48          	sub    $0x48,%rsp
    653813d4:	48 8b 05 b5 3e 00 00 	mov    0x3eb5(%rip),%rax        # 65385290 <.refptr.mingw_app_type>
    653813db:	83 fa 01             	cmp    $0x1,%edx
    653813de:	c7 00 00 00 00 00    	movl   $0x0,(%rax)
    653813e4:	74 0a                	je     653813f0 <DllMainCRTStartup+0x20>
    653813e6:	48 83 c4 48          	add    $0x48,%rsp
    653813ea:	e9 a1 fe ff ff       	jmpq   65381290 <__DllMainCRTStartup>
    653813ef:	90                   	nop
    653813f0:	4c 89 44 24 38       	mov    %r8,0x38(%rsp)
    653813f5:	89 54 24 34          	mov    %edx,0x34(%rsp)
    653813f9:	48 89 4c 24 28       	mov    %rcx,0x28(%rsp)
    653813fe:	e8 1d 0c 00 00       	callq  65382020 <__security_init_cookie>
    65381403:	e8 38 15 00 00       	callq  65382940 <__mingw_init_ehandler>
    65381408:	4c 8b 44 24 38       	mov    0x38(%rsp),%r8
    6538140d:	8b 54 24 34          	mov    0x34(%rsp),%edx
    65381411:	48 8b 4c 24 28       	mov    0x28(%rsp),%rcx
    65381416:	48 83 c4 48          	add    $0x48,%rsp
    6538141a:	e9 71 fe ff ff       	jmpq   65381290 <__DllMainCRTStartup>
    6538141f:	90                   	nop

0000000065381420 <.weak._Jv_RegisterClasses.__gcc_register_frame>:
    65381420:	55                   	push   %rbp
    65381421:	48 89 e5             	mov    %rsp,%rbp
    65381424:	5d                   	pop    %rbp
    65381425:	c3                   	retq   
    65381426:	66 2e 0f 1f 84 00 00 	nopw   %cs:0x0(%rax,%rax,1)
    6538142d:	00 00 00 

0000000065381430 <__gcc_register_frame>:
    65381430:	55                   	push   %rbp
    65381431:	48 89 e5             	mov    %rsp,%rbp
    65381434:	48 83 ec 20          	sub    $0x20,%rsp
    65381438:	48 83 3d 10 2c 00 00 	cmpq   $0x0,0x2c10(%rip)        # 65384050 <__JCR_END__>
    6538143f:	00 
    65381440:	74 30                	je     65381472 <__gcc_register_frame+0x42>
    65381442:	48 8d 0d b7 3b 00 00 	lea    0x3bb7(%rip),%rcx        # 65385000 <.rdata>
    65381449:	ff 15 7d 8d 00 00    	callq  *0x8d7d(%rip)        # 6538a1cc <__imp_GetModuleHandleA>
    6538144f:	48 85 c0             	test   %rax,%rax
    65381452:	74 2f                	je     65381483 <__gcc_register_frame+0x53>
    65381454:	48 8d 15 b3 3b 00 00 	lea    0x3bb3(%rip),%rdx        # 6538500e <.rdata+0xe>
    6538145b:	48 89 c1             	mov    %rax,%rcx
    6538145e:	ff 15 70 8d 00 00    	callq  *0x8d70(%rip)        # 6538a1d4 <__imp_GetProcAddress>
    65381464:	48 85 c0             	test   %rax,%rax
    65381467:	74 09                	je     65381472 <__gcc_register_frame+0x42>
    65381469:	48 8d 0d e0 2b 00 00 	lea    0x2be0(%rip),%rcx        # 65384050 <__JCR_END__>
    65381470:	ff d0                	callq  *%rax
    65381472:	48 8d 0d 17 00 00 00 	lea    0x17(%rip),%rcx        # 65381490 <__gcc_deregister_frame>
    65381479:	48 83 c4 20          	add    $0x20,%rsp
    6538147d:	5d                   	pop    %rbp
    6538147e:	e9 bd 0a 00 00       	jmpq   65381f40 <atexit>
    65381483:	48 8d 05 96 ff ff ff 	lea    -0x6a(%rip),%rax        # 65381420 <.weak._Jv_RegisterClasses.__gcc_register_frame>
    6538148a:	eb dd                	jmp    65381469 <__gcc_register_frame+0x39>
    6538148c:	0f 1f 40 00          	nopl   0x0(%rax)

0000000065381490 <__gcc_deregister_frame>:
    65381490:	55                   	push   %rbp
    65381491:	48 89 e5             	mov    %rsp,%rbp
    65381494:	5d                   	pop    %rbp
    65381495:	c3                   	retq   
    65381496:	90                   	nop
    65381497:	90                   	nop
    65381498:	90                   	nop
    65381499:	90                   	nop
    6538149a:	90                   	nop
    6538149b:	90                   	nop
    6538149c:	90                   	nop
    6538149d:	90                   	nop
    6538149e:	90                   	nop
    6538149f:	90                   	nop

00000000653814a0 <dot_serial>:
    653814a0:	45 85 c0             	test   %r8d,%r8d
    653814a3:	0f 8e 3b 01 00 00    	jle    653815e4 <dot_serial+0x144>
    653814a9:	41 83 f8 08          	cmp    $0x8,%r8d
    653814ad:	0f 8e 28 01 00 00    	jle    653815db <dot_serial+0x13b>
    653814b3:	45 8d 50 f7          	lea    -0x9(%r8),%r10d
    653814b7:	c5 f9 57 c0          	vxorpd %xmm0,%xmm0,%xmm0
    653814bb:	4c 8d 89 a0 00 00 00 	lea    0xa0(%rcx),%r9
    653814c2:	41 c1 ea 03          	shr    $0x3,%r10d
    653814c6:	48 8d 82 a0 00 00 00 	lea    0xa0(%rdx),%rax
    653814cd:	46 8d 1c d5 08 00 00 	lea    0x8(,%r10,8),%r11d
    653814d4:	00 
    653814d5:	45 31 d2             	xor    %r10d,%r10d
    653814d8:	0f 1f 84 00 00 00 00 	nopl   0x0(%rax,%rax,1)
    653814df:	00 
    653814e0:	c4 c1 7b 10 91 60 ff 	vmovsd -0xa0(%r9),%xmm2
    653814e7:	ff ff 
    653814e9:	c4 c1 7b 10 89 68 ff 	vmovsd -0x98(%r9),%xmm1
    653814f0:	ff ff 
    653814f2:	41 83 c2 08          	add    $0x8,%r10d
    653814f6:	41 0f 18 09          	prefetcht0 (%r9)
    653814fa:	0f 18 08             	prefetcht0 (%rax)
    653814fd:	49 83 c1 40          	add    $0x40,%r9
    65381501:	48 83 c0 40          	add    $0x40,%rax
    65381505:	c5 eb 59 90 20 ff ff 	vmulsd -0xe0(%rax),%xmm2,%xmm2
    6538150c:	ff 
    6538150d:	c5 f3 59 88 28 ff ff 	vmulsd -0xd8(%rax),%xmm1,%xmm1
    65381514:	ff 
    65381515:	c5 eb 58 d0          	vaddsd %xmm0,%xmm2,%xmm2
    65381519:	c4 c1 7b 10 81 48 ff 	vmovsd -0xb8(%r9),%xmm0
    65381520:	ff ff 
    65381522:	c5 fb 59 80 48 ff ff 	vmulsd -0xb8(%rax),%xmm0,%xmm0
    65381529:	ff 
    6538152a:	c5 f3 58 d2          	vaddsd %xmm2,%xmm1,%xmm2
    6538152e:	c4 c1 7b 10 89 30 ff 	vmovsd -0xd0(%r9),%xmm1
    65381535:	ff ff 
    65381537:	c5 f3 59 88 30 ff ff 	vmulsd -0xd0(%rax),%xmm1,%xmm1
    6538153e:	ff 
    6538153f:	c5 f3 58 d2          	vaddsd %xmm2,%xmm1,%xmm2
    65381543:	c4 c1 7b 10 89 38 ff 	vmovsd -0xc8(%r9),%xmm1
    6538154a:	ff ff 
    6538154c:	c5 f3 59 88 38 ff ff 	vmulsd -0xc8(%rax),%xmm1,%xmm1
    65381553:	ff 
    65381554:	c5 f3 58 d2          	vaddsd %xmm2,%xmm1,%xmm2
    65381558:	c4 c1 7b 10 89 40 ff 	vmovsd -0xc0(%r9),%xmm1
    6538155f:	ff ff 
    65381561:	c5 f3 59 88 40 ff ff 	vmulsd -0xc0(%rax),%xmm1,%xmm1
    65381568:	ff 
    65381569:	c5 f3 58 ca          	vaddsd %xmm2,%xmm1,%xmm1
    6538156d:	c5 fb 58 d1          	vaddsd %xmm1,%xmm0,%xmm2
    65381571:	c4 c1 7b 10 89 50 ff 	vmovsd -0xb0(%r9),%xmm1
    65381578:	ff ff 
    6538157a:	c5 f3 59 80 50 ff ff 	vmulsd -0xb0(%rax),%xmm1,%xmm0
    65381581:	ff 
    65381582:	c5 fb 58 ca          	vaddsd %xmm2,%xmm0,%xmm1
    65381586:	c4 c1 7b 10 81 58 ff 	vmovsd -0xa8(%r9),%xmm0
    6538158d:	ff ff 
    6538158f:	c5 fb 59 80 58 ff ff 	vmulsd -0xa8(%rax),%xmm0,%xmm0
    65381596:	ff 
    65381597:	c5 fb 58 c1          	vaddsd %xmm1,%xmm0,%xmm0
    6538159b:	45 39 da             	cmp    %r11d,%r10d
    6538159e:	0f 85 3c ff ff ff    	jne    653814e0 <dot_serial+0x40>
    653815a4:	49 63 c2             	movslq %r10d,%rax
    653815a7:	48 c1 e0 03          	shl    $0x3,%rax
    653815ab:	48 01 c1             	add    %rax,%rcx
    653815ae:	48 01 c2             	add    %rax,%rdx
    653815b1:	31 c0                	xor    %eax,%eax
    653815b3:	0f 1f 00             	nopl   (%rax)
    653815b6:	66 2e 0f 1f 84 00 00 	nopw   %cs:0x0(%rax,%rax,1)
    653815bd:	00 00 00 
    653815c0:	c5 fb 10 0c 02       	vmovsd (%rdx,%rax,1),%xmm1
    653815c5:	41 ff c2             	inc    %r10d
    653815c8:	c5 f3 59 0c 01       	vmulsd (%rcx,%rax,1),%xmm1,%xmm1
    653815cd:	48 83 c0 08          	add    $0x8,%rax
    653815d1:	c5 fb 58 c1          	vaddsd %xmm1,%xmm0,%xmm0
    653815d5:	45 39 d0             	cmp    %r10d,%r8d
    653815d8:	7f e6                	jg     653815c0 <dot_serial+0x120>
    653815da:	c3                   	retq   
    653815db:	45 31 d2             	xor    %r10d,%r10d
    653815de:	c5 f9 57 c0          	vxorpd %xmm0,%xmm0,%xmm0
    653815e2:	eb c0                	jmp    653815a4 <dot_serial+0x104>
    653815e4:	c5 f9 57 c0          	vxorpd %xmm0,%xmm0,%xmm0
    653815e8:	c3                   	retq   
    653815e9:	0f 1f 80 00 00 00 00 	nopl   0x0(%rax)

00000000653815f0 <dot_vec>:
    653815f0:	53                   	push   %rbx
    653815f1:	45 85 c0             	test   %r8d,%r8d
    653815f4:	45 8d 50 03          	lea    0x3(%r8),%r10d
    653815f8:	45 0f 49 d0          	cmovns %r8d,%r10d
    653815fc:	41 c1 fa 02          	sar    $0x2,%r10d
    65381600:	45 85 d2             	test   %r10d,%r10d
    65381603:	0f 8e 11 02 00 00    	jle    6538181a <dot_vec+0x22a>
    65381609:	41 83 fa 02          	cmp    $0x2,%r10d
    6538160d:	0f 8e fc 01 00 00    	jle    6538180f <dot_vec+0x21f>
    65381613:	41 8d 42 fd          	lea    -0x3(%r10),%eax
    65381617:	c5 f1 57 c9          	vxorpd %xmm1,%xmm1,%xmm1
    6538161b:	4c 8d 99 20 02 00 00 	lea    0x220(%rcx),%r11
    65381622:	d1 e8                	shr    %eax
    65381624:	4c 8d 8a 20 02 00 00 	lea    0x220(%rdx),%r9
    6538162b:	8d 5c 00 02          	lea    0x2(%rax,%rax,1),%ebx
    6538162f:	31 c0                	xor    %eax,%eax
    65381631:	0f 1f 44 00 00       	nopl   0x0(%rax,%rax,1)
    65381636:	66 2e 0f 1f 84 00 00 	nopw   %cs:0x0(%rax,%rax,1)
    6538163d:	00 00 00 
    65381640:	c4 c1 7d 28 83 e0 fd 	vmovapd -0x220(%r11),%ymm0
    65381647:	ff ff 
    65381649:	83 c0 02             	add    $0x2,%eax
    6538164c:	41 0f 18 0b          	prefetcht0 (%r11)
    65381650:	41 0f 18 09          	prefetcht0 (%r9)
    65381654:	49 83 c3 40          	add    $0x40,%r11
    65381658:	49 83 c1 40          	add    $0x40,%r9
    6538165c:	c4 c1 7d 59 81 a0 fd 	vmulpd -0x260(%r9),%ymm0,%ymm0
    65381663:	ff ff 
    65381665:	c5 fd 58 c9          	vaddpd %ymm1,%ymm0,%ymm1
    65381669:	c4 c1 7d 28 83 c0 fd 	vmovapd -0x240(%r11),%ymm0
    65381670:	ff ff 
    65381672:	c4 c1 7d 59 81 c0 fd 	vmulpd -0x240(%r9),%ymm0,%ymm0
    65381679:	ff ff 
    6538167b:	c5 fd 58 c9          	vaddpd %ymm1,%ymm0,%ymm1
    6538167f:	39 c3                	cmp    %eax,%ebx
    65381681:	75 bd                	jne    65381640 <dot_vec+0x50>
    65381683:	4c 63 d8             	movslq %eax,%r11
    65381686:	45 31 c9             	xor    %r9d,%r9d
    65381689:	49 c1 e3 05          	shl    $0x5,%r11
    6538168d:	4a 8d 1c 19          	lea    (%rcx,%r11,1),%rbx
    65381691:	49 01 d3             	add    %rdx,%r11
    65381694:	66 90                	xchg   %ax,%ax
    65381696:	66 2e 0f 1f 84 00 00 	nopw   %cs:0x0(%rax,%rax,1)
    6538169d:	00 00 00 
    653816a0:	c4 a1 7d 28 04 0b    	vmovapd (%rbx,%r9,1),%ymm0
    653816a6:	ff c0                	inc    %eax
    653816a8:	c4 81 7d 59 04 0b    	vmulpd (%r11,%r9,1),%ymm0,%ymm0
    653816ae:	49 83 c1 20          	add    $0x20,%r9
    653816b2:	c5 f5 58 c8          	vaddpd %ymm0,%ymm1,%ymm1
    653816b6:	41 39 c2             	cmp    %eax,%r10d
    653816b9:	7f e5                	jg     653816a0 <dot_vec+0xb0>
    653816bb:	41 c1 e2 02          	shl    $0x2,%r10d
    653816bf:	c5 f1 7c c1          	vhaddpd %xmm1,%xmm1,%xmm0
    653816c3:	c4 e3 7d 19 ca 01    	vextractf128 $0x1,%ymm1,%xmm2
    653816c9:	c5 f8 28 ca          	vmovaps %xmm2,%xmm1
    653816cd:	c5 fb 58 c9          	vaddsd %xmm1,%xmm0,%xmm1
    653816d1:	c5 e9 15 c2          	vunpckhpd %xmm2,%xmm2,%xmm0
    653816d5:	c5 f3 58 c0          	vaddsd %xmm0,%xmm1,%xmm0
    653816d9:	45 39 d0             	cmp    %r10d,%r8d
    653816dc:	0f 8e 28 01 00 00    	jle    6538180a <dot_vec+0x21a>
    653816e2:	41 8d 58 f9          	lea    -0x7(%r8),%ebx
    653816e6:	45 8d 4a 01          	lea    0x1(%r10),%r9d
    653816ea:	44 39 cb             	cmp    %r9d,%ebx
    653816ed:	0f 8e ec 00 00 00    	jle    653817df <dot_vec+0x1ef>
    653816f3:	49 63 c2             	movslq %r10d,%rax
    653816f6:	48 8d 04 c5 a0 00 00 	lea    0xa0(,%rax,8),%rax
    653816fd:	00 
    653816fe:	4c 8d 0c 01          	lea    (%rcx,%rax,1),%r9
    65381702:	48 01 d0             	add    %rdx,%rax
    65381705:	90                   	nop
    65381706:	66 2e 0f 1f 84 00 00 	nopw   %cs:0x0(%rax,%rax,1)
    6538170d:	00 00 00 
    65381710:	c4 c1 7b 10 91 60 ff 	vmovsd -0xa0(%r9),%xmm2
    65381717:	ff ff 
    65381719:	c5 fb 10 88 68 ff ff 	vmovsd -0x98(%rax),%xmm1
    65381720:	ff 
    65381721:	45 89 d3             	mov    %r10d,%r11d
    65381724:	41 0f 18 09          	prefetcht0 (%r9)
    65381728:	41 83 c3 09          	add    $0x9,%r11d
    6538172c:	0f 18 08             	prefetcht0 (%rax)
    6538172f:	41 83 c2 08          	add    $0x8,%r10d
    65381733:	49 83 c1 40          	add    $0x40,%r9
    65381737:	48 83 c0 40          	add    $0x40,%rax
    6538173b:	c5 eb 59 90 20 ff ff 	vmulsd -0xe0(%rax),%xmm2,%xmm2
    65381742:	ff 
    65381743:	c4 c1 73 59 89 28 ff 	vmulsd -0xd8(%r9),%xmm1,%xmm1
    6538174a:	ff ff 
    6538174c:	c5 eb 58 d0          	vaddsd %xmm0,%xmm2,%xmm2
    65381750:	c5 fb 10 80 48 ff ff 	vmovsd -0xb8(%rax),%xmm0
    65381757:	ff 
    65381758:	c4 c1 7b 59 81 48 ff 	vmulsd -0xb8(%r9),%xmm0,%xmm0
    6538175f:	ff ff 
    65381761:	c5 f3 58 d2          	vaddsd %xmm2,%xmm1,%xmm2
    65381765:	c5 fb 10 88 30 ff ff 	vmovsd -0xd0(%rax),%xmm1
    6538176c:	ff 
    6538176d:	c4 c1 73 59 89 30 ff 	vmulsd -0xd0(%r9),%xmm1,%xmm1
    65381774:	ff ff 
    65381776:	c5 f3 58 d2          	vaddsd %xmm2,%xmm1,%xmm2
    6538177a:	c5 fb 10 88 38 ff ff 	vmovsd -0xc8(%rax),%xmm1
    65381781:	ff 
    65381782:	c4 c1 73 59 89 38 ff 	vmulsd -0xc8(%r9),%xmm1,%xmm1
    65381789:	ff ff 
    6538178b:	c5 f3 58 d2          	vaddsd %xmm2,%xmm1,%xmm2
    6538178f:	c5 fb 10 88 40 ff ff 	vmovsd -0xc0(%rax),%xmm1
    65381796:	ff 
    65381797:	c4 c1 73 59 89 40 ff 	vmulsd -0xc0(%r9),%xmm1,%xmm1
    6538179e:	ff ff 
    653817a0:	c5 f3 58 ca          	vaddsd %xmm2,%xmm1,%xmm1
    653817a4:	c5 fb 58 d1          	vaddsd %xmm1,%xmm0,%xmm2
    653817a8:	c4 c1 7b 10 89 50 ff 	vmovsd -0xb0(%r9),%xmm1
    653817af:	ff ff 
    653817b1:	c5 f3 59 80 50 ff ff 	vmulsd -0xb0(%rax),%xmm1,%xmm0
    653817b8:	ff 
    653817b9:	c5 fb 58 ca          	vaddsd %xmm2,%xmm0,%xmm1
    653817bd:	c4 c1 7b 10 81 58 ff 	vmovsd -0xa8(%r9),%xmm0
    653817c4:	ff ff 
    653817c6:	c5 fb 59 80 58 ff ff 	vmulsd -0xa8(%rax),%xmm0,%xmm0
    653817cd:	ff 
    653817ce:	c5 fb 58 c1          	vaddsd %xmm1,%xmm0,%xmm0
    653817d2:	44 39 db             	cmp    %r11d,%ebx
    653817d5:	0f 8f 35 ff ff ff    	jg     65381710 <dot_vec+0x120>
    653817db:	45 8d 4a 01          	lea    0x1(%r10),%r9d
    653817df:	4d 63 d2             	movslq %r10d,%r10
    653817e2:	31 c0                	xor    %eax,%eax
    653817e4:	49 c1 e2 03          	shl    $0x3,%r10
    653817e8:	4c 01 d1             	add    %r10,%rcx
    653817eb:	4c 01 d2             	add    %r10,%rdx
    653817ee:	eb 03                	jmp    653817f3 <dot_vec+0x203>
    653817f0:	41 ff c1             	inc    %r9d
    653817f3:	c5 fb 10 0c 02       	vmovsd (%rdx,%rax,1),%xmm1
    653817f8:	c5 f3 59 0c 01       	vmulsd (%rcx,%rax,1),%xmm1,%xmm1
    653817fd:	48 83 c0 08          	add    $0x8,%rax
    65381801:	c5 fb 58 c1          	vaddsd %xmm1,%xmm0,%xmm0
    65381805:	45 39 c8             	cmp    %r9d,%r8d
    65381808:	7f e6                	jg     653817f0 <dot_vec+0x200>
    6538180a:	c5 f8 77             	vzeroupper 
    6538180d:	5b                   	pop    %rbx
    6538180e:	c3                   	retq   
    6538180f:	c5 f1 57 c9          	vxorpd %xmm1,%xmm1,%xmm1
    65381813:	31 c0                	xor    %eax,%eax
    65381815:	e9 69 fe ff ff       	jmpq   65381683 <dot_vec+0x93>
    6538181a:	45 31 d2             	xor    %r10d,%r10d
    6538181d:	c5 f1 57 c9          	vxorpd %xmm1,%xmm1,%xmm1
    65381821:	e9 99 fe ff ff       	jmpq   653816bf <dot_vec+0xcf>
    65381826:	66 2e 0f 1f 84 00 00 	nopw   %cs:0x0(%rax,%rax,1)
    6538182d:	00 00 00 

0000000065381830 <MxM_4x4_2>:
    65381830:	c4 e2 7d 19 19       	vbroadcastsd (%rcx),%ymm3
    65381835:	c4 e2 7d 19 51 08    	vbroadcastsd 0x8(%rcx),%ymm2
    6538183b:	c4 e2 7d 19 49 10    	vbroadcastsd 0x10(%rcx),%ymm1
    65381841:	c4 e2 7d 19 41 18    	vbroadcastsd 0x18(%rcx),%ymm0
    65381847:	c5 e5 59 1a          	vmulpd (%rdx),%ymm3,%ymm3
    6538184b:	c5 ed 59 52 20       	vmulpd 0x20(%rdx),%ymm2,%ymm2
    65381850:	c5 f5 59 4a 40       	vmulpd 0x40(%rdx),%ymm1,%ymm1
    65381855:	c5 fd 59 42 60       	vmulpd 0x60(%rdx),%ymm0,%ymm0
    6538185a:	c5 ed 58 d3          	vaddpd %ymm3,%ymm2,%ymm2
    6538185e:	c5 f5 58 ca          	vaddpd %ymm2,%ymm1,%ymm1
    65381862:	c5 fd 58 c1          	vaddpd %ymm1,%ymm0,%ymm0
    65381866:	c4 c1 7d 29 00       	vmovapd %ymm0,(%r8)
    6538186b:	c4 e2 7d 19 59 20    	vbroadcastsd 0x20(%rcx),%ymm3
    65381871:	c4 e2 7d 19 51 28    	vbroadcastsd 0x28(%rcx),%ymm2
    65381877:	c4 e2 7d 19 49 30    	vbroadcastsd 0x30(%rcx),%ymm1
    6538187d:	c4 e2 7d 19 41 38    	vbroadcastsd 0x38(%rcx),%ymm0
    65381883:	c5 e5 59 1a          	vmulpd (%rdx),%ymm3,%ymm3
    65381887:	c5 ed 59 52 20       	vmulpd 0x20(%rdx),%ymm2,%ymm2
    6538188c:	c5 f5 59 4a 40       	vmulpd 0x40(%rdx),%ymm1,%ymm1
    65381891:	c5 fd 59 42 60       	vmulpd 0x60(%rdx),%ymm0,%ymm0
    65381896:	c5 ed 58 d3          	vaddpd %ymm3,%ymm2,%ymm2
    6538189a:	c5 f5 58 ca          	vaddpd %ymm2,%ymm1,%ymm1
    6538189e:	c5 fd 58 c1          	vaddpd %ymm1,%ymm0,%ymm0
    653818a2:	c4 c1 7d 29 40 20    	vmovapd %ymm0,0x20(%r8)
    653818a8:	c4 e2 7d 19 59 40    	vbroadcastsd 0x40(%rcx),%ymm3
    653818ae:	c4 e2 7d 19 51 48    	vbroadcastsd 0x48(%rcx),%ymm2
    653818b4:	c4 e2 7d 19 49 50    	vbroadcastsd 0x50(%rcx),%ymm1
    653818ba:	c4 e2 7d 19 41 58    	vbroadcastsd 0x58(%rcx),%ymm0
    653818c0:	c5 e5 59 1a          	vmulpd (%rdx),%ymm3,%ymm3
    653818c4:	c5 ed 59 52 20       	vmulpd 0x20(%rdx),%ymm2,%ymm2
    653818c9:	c5 f5 59 4a 40       	vmulpd 0x40(%rdx),%ymm1,%ymm1
    653818ce:	c5 fd 59 42 60       	vmulpd 0x60(%rdx),%ymm0,%ymm0
    653818d3:	c5 ed 58 d3          	vaddpd %ymm3,%ymm2,%ymm2
    653818d7:	c5 f5 58 ca          	vaddpd %ymm2,%ymm1,%ymm1
    653818db:	c5 fd 58 c1          	vaddpd %ymm1,%ymm0,%ymm0
    653818df:	c4 c1 7d 29 40 40    	vmovapd %ymm0,0x40(%r8)
    653818e5:	c4 e2 7d 19 59 60    	vbroadcastsd 0x60(%rcx),%ymm3
    653818eb:	c4 e2 7d 19 51 68    	vbroadcastsd 0x68(%rcx),%ymm2
    653818f1:	c4 e2 7d 19 49 70    	vbroadcastsd 0x70(%rcx),%ymm1
    653818f7:	c4 e2 7d 19 41 78    	vbroadcastsd 0x78(%rcx),%ymm0
    653818fd:	c5 e5 59 1a          	vmulpd (%rdx),%ymm3,%ymm3
    65381901:	c5 ed 59 52 20       	vmulpd 0x20(%rdx),%ymm2,%ymm2
    65381906:	c5 f5 59 4a 40       	vmulpd 0x40(%rdx),%ymm1,%ymm1
    6538190b:	c5 fd 59 42 60       	vmulpd 0x60(%rdx),%ymm0,%ymm0
    65381910:	c5 ed 58 d3          	vaddpd %ymm3,%ymm2,%ymm2
    65381914:	c5 f5 58 ca          	vaddpd %ymm2,%ymm1,%ymm1
    65381918:	c5 fd 58 c1          	vaddpd %ymm1,%ymm0,%ymm0
    6538191c:	c4 c1 7d 29 40 60    	vmovapd %ymm0,0x60(%r8)
    65381922:	c5 f8 77             	vzeroupper 
    65381925:	c3                   	retq   
    65381926:	66 2e 0f 1f 84 00 00 	nopw   %cs:0x0(%rax,%rax,1)
    6538192d:	00 00 00 

0000000065381930 <MxM_4x4>:
    65381930:	55                   	push   %rbp
    65381931:	48 89 e5             	mov    %rsp,%rbp
    65381934:	48 83 ec 10          	sub    $0x10,%rsp
    65381938:	c5 f8 29 75 f0       	vmovaps %xmm6,-0x10(%rbp)
    6538193d:	c5 fb 10 02          	vmovsd (%rdx),%xmm0
    65381941:	48 81 ec a0 00 00 00 	sub    $0xa0,%rsp
    65381948:	48 8d 44 24 1f       	lea    0x1f(%rsp),%rax
    6538194d:	48 83 e0 e0          	and    $0xffffffffffffffe0,%rax
    65381951:	c5 fb 11 00          	vmovsd %xmm0,(%rax)
    65381955:	c5 fb 10 42 08       	vmovsd 0x8(%rdx),%xmm0
    6538195a:	c5 fb 11 40 20       	vmovsd %xmm0,0x20(%rax)
    6538195f:	c5 fb 10 42 10       	vmovsd 0x10(%rdx),%xmm0
    65381964:	c5 fb 11 40 40       	vmovsd %xmm0,0x40(%rax)
    65381969:	c5 fb 10 42 18       	vmovsd 0x18(%rdx),%xmm0
    6538196e:	c5 fb 11 40 60       	vmovsd %xmm0,0x60(%rax)
    65381973:	c5 fb 10 42 20       	vmovsd 0x20(%rdx),%xmm0
    65381978:	c5 fb 11 40 08       	vmovsd %xmm0,0x8(%rax)
    6538197d:	c5 fb 10 42 28       	vmovsd 0x28(%rdx),%xmm0
    65381982:	c5 fb 11 40 28       	vmovsd %xmm0,0x28(%rax)
    65381987:	c5 fb 10 42 30       	vmovsd 0x30(%rdx),%xmm0
    6538198c:	c5 fb 11 40 48       	vmovsd %xmm0,0x48(%rax)
    65381991:	c5 fb 10 42 38       	vmovsd 0x38(%rdx),%xmm0
    65381996:	c5 fb 11 40 68       	vmovsd %xmm0,0x68(%rax)
    6538199b:	c5 fb 10 42 40       	vmovsd 0x40(%rdx),%xmm0
    653819a0:	c5 fb 11 40 10       	vmovsd %xmm0,0x10(%rax)
    653819a5:	c5 fb 10 42 48       	vmovsd 0x48(%rdx),%xmm0
    653819aa:	c5 fb 11 40 30       	vmovsd %xmm0,0x30(%rax)
    653819af:	c5 fb 10 42 50       	vmovsd 0x50(%rdx),%xmm0
    653819b4:	c5 fb 11 40 50       	vmovsd %xmm0,0x50(%rax)
    653819b9:	c5 fb 10 42 58       	vmovsd 0x58(%rdx),%xmm0
    653819be:	c5 fb 11 40 70       	vmovsd %xmm0,0x70(%rax)
    653819c3:	c5 fb 10 42 60       	vmovsd 0x60(%rdx),%xmm0
    653819c8:	c5 fb 11 40 18       	vmovsd %xmm0,0x18(%rax)
    653819cd:	c5 fb 10 42 68       	vmovsd 0x68(%rdx),%xmm0
    653819d2:	c5 fb 11 40 38       	vmovsd %xmm0,0x38(%rax)
    653819d7:	c5 fb 10 42 70       	vmovsd 0x70(%rdx),%xmm0
    653819dc:	c5 fb 11 40 58       	vmovsd %xmm0,0x58(%rax)
    653819e1:	c5 fb 10 42 78       	vmovsd 0x78(%rdx),%xmm0
    653819e6:	c5 fb 11 40 78       	vmovsd %xmm0,0x78(%rax)
    653819eb:	c5 fd 28 08          	vmovapd (%rax),%ymm1
    653819ef:	c5 fd 28 21          	vmovapd (%rcx),%ymm4
    653819f3:	c5 fd 28 58 20       	vmovapd 0x20(%rax),%ymm3
    653819f8:	c5 fd 28 40 40       	vmovapd 0x40(%rax),%ymm0
    653819fd:	c5 fd 28 68 60       	vmovapd 0x60(%rax),%ymm5
    65381a02:	c5 dd 59 d1          	vmulpd %ymm1,%ymm4,%ymm2
    65381a06:	c5 dd 59 f3          	vmulpd %ymm3,%ymm4,%ymm6
    65381a0a:	c5 ed 7c f6          	vhaddpd %ymm6,%ymm2,%ymm6
    65381a0e:	c5 dd 59 d0          	vmulpd %ymm0,%ymm4,%ymm2
    65381a12:	c5 dd 59 e5          	vmulpd %ymm5,%ymm4,%ymm4
    65381a16:	c5 ed 7c d4          	vhaddpd %ymm4,%ymm2,%ymm2
    65381a1a:	c4 e3 6d 06 e6 02    	vperm2f128 $0x2,%ymm6,%ymm2,%ymm4
    65381a20:	c4 e3 6d 06 d6 13    	vperm2f128 $0x13,%ymm6,%ymm2,%ymm2
    65381a26:	c5 ed 58 d4          	vaddpd %ymm4,%ymm2,%ymm2
    65381a2a:	c4 c1 7d 29 10       	vmovapd %ymm2,(%r8)
    65381a2f:	c5 fd 28 61 20       	vmovapd 0x20(%rcx),%ymm4
    65381a34:	c5 dd 59 d1          	vmulpd %ymm1,%ymm4,%ymm2
    65381a38:	c5 dd 59 f3          	vmulpd %ymm3,%ymm4,%ymm6
    65381a3c:	c5 ed 7c f6          	vhaddpd %ymm6,%ymm2,%ymm6
    65381a40:	c5 dd 59 d0          	vmulpd %ymm0,%ymm4,%ymm2
    65381a44:	c5 dd 59 e5          	vmulpd %ymm5,%ymm4,%ymm4
    65381a48:	c5 ed 7c d4          	vhaddpd %ymm4,%ymm2,%ymm2
    65381a4c:	c4 e3 6d 06 e6 02    	vperm2f128 $0x2,%ymm6,%ymm2,%ymm4
    65381a52:	c4 e3 6d 06 d6 13    	vperm2f128 $0x13,%ymm6,%ymm2,%ymm2
    65381a58:	c5 dd 58 d2          	vaddpd %ymm2,%ymm4,%ymm2
    65381a5c:	c4 c1 7d 29 50 20    	vmovapd %ymm2,0x20(%r8)
    65381a62:	c5 fd 28 51 40       	vmovapd 0x40(%rcx),%ymm2
    65381a67:	c5 f5 59 e2          	vmulpd %ymm2,%ymm1,%ymm4
    65381a6b:	c5 e5 59 f2          	vmulpd %ymm2,%ymm3,%ymm6
    65381a6f:	c5 dd 7c f6          	vhaddpd %ymm6,%ymm4,%ymm6
    65381a73:	c5 ed 59 e0          	vmulpd %ymm0,%ymm2,%ymm4
    65381a77:	c5 ed 59 d5          	vmulpd %ymm5,%ymm2,%ymm2
    65381a7b:	c5 dd 7c e2          	vhaddpd %ymm2,%ymm4,%ymm4
    65381a7f:	c4 e3 5d 06 d6 02    	vperm2f128 $0x2,%ymm6,%ymm4,%ymm2
    65381a85:	c4 e3 5d 06 e6 13    	vperm2f128 $0x13,%ymm6,%ymm4,%ymm4
    65381a8b:	c5 ed 58 e4          	vaddpd %ymm4,%ymm2,%ymm4
    65381a8f:	c4 c1 7d 29 60 40    	vmovapd %ymm4,0x40(%r8)
    65381a95:	c5 fd 28 51 60       	vmovapd 0x60(%rcx),%ymm2
    65381a9a:	c5 ed 59 db          	vmulpd %ymm3,%ymm2,%ymm3
    65381a9e:	c5 ed 59 c9          	vmulpd %ymm1,%ymm2,%ymm1
    65381aa2:	c5 ed 59 c0          	vmulpd %ymm0,%ymm2,%ymm0
    65381aa6:	c5 ed 59 d5          	vmulpd %ymm5,%ymm2,%ymm2
    65381aaa:	c5 f5 7c cb          	vhaddpd %ymm3,%ymm1,%ymm1
    65381aae:	c5 fd 7c c2          	vhaddpd %ymm2,%ymm0,%ymm0
    65381ab2:	c4 e3 7d 06 d1 02    	vperm2f128 $0x2,%ymm1,%ymm0,%ymm2
    65381ab8:	c4 e3 7d 06 c1 13    	vperm2f128 $0x13,%ymm1,%ymm0,%ymm0
    65381abe:	c5 ed 58 c0          	vaddpd %ymm0,%ymm2,%ymm0
    65381ac2:	c4 c1 7d 29 40 60    	vmovapd %ymm0,0x60(%r8)
    65381ac8:	c5 f8 77             	vzeroupper 
    65381acb:	c5 f8 28 75 f0       	vmovaps -0x10(%rbp),%xmm6
    65381ad0:	48 89 ec             	mov    %rbp,%rsp
    65381ad3:	5d                   	pop    %rbp
    65381ad4:	c3                   	retq   

0000000065381ad5 <load_transpose_4x4>:
    65381ad5:	c5 fb 10 01          	vmovsd (%rcx),%xmm0
    65381ad9:	c5 fb 11 02          	vmovsd %xmm0,(%rdx)
    65381add:	c5 fb 10 41 08       	vmovsd 0x8(%rcx),%xmm0
    65381ae2:	c5 fb 11 42 20       	vmovsd %xmm0,0x20(%rdx)
    65381ae7:	c5 fb 10 41 10       	vmovsd 0x10(%rcx),%xmm0
    65381aec:	c5 fb 11 42 40       	vmovsd %xmm0,0x40(%rdx)
    65381af1:	c5 fb 10 41 18       	vmovsd 0x18(%rcx),%xmm0
    65381af6:	c5 fb 11 42 60       	vmovsd %xmm0,0x60(%rdx)
    65381afb:	c5 fb 10 41 20       	vmovsd 0x20(%rcx),%xmm0
    65381b00:	c5 fb 11 42 08       	vmovsd %xmm0,0x8(%rdx)
    65381b05:	c5 fb 10 41 28       	vmovsd 0x28(%rcx),%xmm0
    65381b0a:	c5 fb 11 42 28       	vmovsd %xmm0,0x28(%rdx)
    65381b0f:	c5 fb 10 41 30       	vmovsd 0x30(%rcx),%xmm0
    65381b14:	c5 fb 11 42 48       	vmovsd %xmm0,0x48(%rdx)
    65381b19:	c5 fb 10 41 38       	vmovsd 0x38(%rcx),%xmm0
    65381b1e:	c5 fb 11 42 68       	vmovsd %xmm0,0x68(%rdx)
    65381b23:	c5 fb 10 41 40       	vmovsd 0x40(%rcx),%xmm0
    65381b28:	c5 fb 11 42 10       	vmovsd %xmm0,0x10(%rdx)
    65381b2d:	c5 fb 10 41 48       	vmovsd 0x48(%rcx),%xmm0
    65381b32:	c5 fb 11 42 30       	vmovsd %xmm0,0x30(%rdx)
    65381b37:	c5 fb 10 41 50       	vmovsd 0x50(%rcx),%xmm0
    65381b3c:	c5 fb 11 42 50       	vmovsd %xmm0,0x50(%rdx)
    65381b41:	c5 fb 10 41 58       	vmovsd 0x58(%rcx),%xmm0
    65381b46:	c5 fb 11 42 70       	vmovsd %xmm0,0x70(%rdx)
    65381b4b:	c5 fb 10 41 60       	vmovsd 0x60(%rcx),%xmm0
    65381b50:	c5 fb 11 42 18       	vmovsd %xmm0,0x18(%rdx)
    65381b55:	c5 fb 10 41 68       	vmovsd 0x68(%rcx),%xmm0
    65381b5a:	c5 fb 11 42 38       	vmovsd %xmm0,0x38(%rdx)
    65381b5f:	c5 fb 10 41 70       	vmovsd 0x70(%rcx),%xmm0
    65381b64:	c5 fb 11 42 58       	vmovsd %xmm0,0x58(%rdx)
    65381b69:	c5 fb 10 41 78       	vmovsd 0x78(%rcx),%xmm0
    65381b6e:	c5 fb 11 42 78       	vmovsd %xmm0,0x78(%rdx)
    65381b73:	c3                   	retq   

0000000065381b74 <MxM_square_2>:
    65381b74:	41 57                	push   %r15
    65381b76:	41 56                	push   %r14
    65381b78:	41 55                	push   %r13
    65381b7a:	41 54                	push   %r12
    65381b7c:	55                   	push   %rbp
    65381b7d:	57                   	push   %rdi
    65381b7e:	56                   	push   %rsi
    65381b7f:	53                   	push   %rbx
    65381b80:	48 83 ec 18          	sub    $0x18,%rsp
    65381b84:	4c 89 c6             	mov    %r8,%rsi
    65381b87:	45 89 c8             	mov    %r9d,%r8d
    65381b8a:	49 89 cc             	mov    %rcx,%r12
    65381b8d:	45 89 cf             	mov    %r9d,%r15d
    65381b90:	41 c1 e8 02          	shr    $0x2,%r8d
    65381b94:	45 85 c9             	test   %r9d,%r9d
    65381b97:	0f 84 bb 00 00 00    	je     65381c58 <MxM_square_2+0xe4>
    65381b9d:	41 8d 41 ff          	lea    -0x1(%r9),%eax
    65381ba1:	43 8d 6c 00 02       	lea    0x2(%r8,%r8,1),%ebp
    65381ba6:	45 31 f6             	xor    %r14d,%r14d
    65381ba9:	48 ff c0             	inc    %rax
    65381bac:	45 31 ed             	xor    %r13d,%r13d
    65381baf:	48 89 44 24 08       	mov    %rax,0x8(%rsp)
    65381bb4:	45 85 c0             	test   %r8d,%r8d
    65381bb7:	0f 84 89 00 00 00    	je     65381c46 <MxM_square_2+0xd2>
    65381bbd:	48 8b 5c 24 08       	mov    0x8(%rsp),%rbx
    65381bc2:	44 89 f0             	mov    %r14d,%eax
    65381bc5:	45 31 db             	xor    %r11d,%r11d
    65381bc8:	48 89 c7             	mov    %rax,%rdi
    65381bcb:	48 c1 e7 05          	shl    $0x5,%rdi
    65381bcf:	4c 01 e7             	add    %r12,%rdi
    65381bd2:	48 8d 04 83          	lea    (%rbx,%rax,4),%rax
    65381bd6:	31 db                	xor    %ebx,%ebx
    65381bd8:	4d 8d 14 c4          	lea    (%r12,%rax,8),%r10
    65381bdc:	0f 1f 40 00          	nopl   0x0(%rax)
    65381be0:	c5 e9 57 d2          	vxorpd %xmm2,%xmm2,%xmm2
    65381be4:	44 89 d9             	mov    %r11d,%ecx
    65381be7:	48 89 f8             	mov    %rdi,%rax
    65381bea:	c5 fd 28 ca          	vmovapd %ymm2,%ymm1
    65381bee:	66 90                	xchg   %ax,%ax
    65381bf0:	c4 e2 7d 19 00       	vbroadcastsd (%rax),%ymm0
    65381bf5:	41 89 c9             	mov    %ecx,%r9d
    65381bf8:	48 83 c0 08          	add    $0x8,%rax
    65381bfc:	49 c1 e1 05          	shl    $0x5,%r9
    65381c00:	c4 a1 7d 59 1c 0a    	vmulpd (%rdx,%r9,1),%ymm0,%ymm3
    65381c06:	44 8d 49 01          	lea    0x1(%rcx),%r9d
    65381c0a:	49 c1 e1 05          	shl    $0x5,%r9
    65381c0e:	44 01 c1             	add    %r8d,%ecx
    65381c11:	c4 a1 7d 59 04 0a    	vmulpd (%rdx,%r9,1),%ymm0,%ymm0
    65381c17:	c5 ed 58 d3          	vaddpd %ymm3,%ymm2,%ymm2
    65381c1b:	c5 f5 58 c8          	vaddpd %ymm0,%ymm1,%ymm1
    65381c1f:	4c 39 d0             	cmp    %r10,%rax
    65381c22:	75 cc                	jne    65381bf0 <MxM_square_2+0x7c>
    65381c24:	89 d8                	mov    %ebx,%eax
    65381c26:	41 83 c3 02          	add    $0x2,%r11d
    65381c2a:	48 c1 e0 05          	shl    $0x5,%rax
    65381c2e:	c5 fd 29 14 06       	vmovapd %ymm2,(%rsi,%rax,1)
    65381c33:	8d 43 01             	lea    0x1(%rbx),%eax
    65381c36:	01 eb                	add    %ebp,%ebx
    65381c38:	48 c1 e0 05          	shl    $0x5,%rax
    65381c3c:	c5 fd 29 0c 06       	vmovapd %ymm1,(%rsi,%rax,1)
    65381c41:	45 39 d8             	cmp    %r11d,%r8d
    65381c44:	77 9a                	ja     65381be0 <MxM_square_2+0x6c>
    65381c46:	41 ff c5             	inc    %r13d
    65381c49:	45 01 c6             	add    %r8d,%r14d
    65381c4c:	45 39 ef             	cmp    %r13d,%r15d
    65381c4f:	0f 85 5f ff ff ff    	jne    65381bb4 <MxM_square_2+0x40>
    65381c55:	c5 f8 77             	vzeroupper 
    65381c58:	48 83 c4 18          	add    $0x18,%rsp
    65381c5c:	5b                   	pop    %rbx
    65381c5d:	5e                   	pop    %rsi
    65381c5e:	5f                   	pop    %rdi
    65381c5f:	5d                   	pop    %rbp
    65381c60:	41 5c                	pop    %r12
    65381c62:	41 5d                	pop    %r13
    65381c64:	41 5e                	pop    %r14
    65381c66:	41 5f                	pop    %r15
    65381c68:	c3                   	retq   
    65381c69:	0f 1f 80 00 00 00 00 	nopl   0x0(%rax)

0000000065381c70 <MxM_square>:
    65381c70:	41 57                	push   %r15
    65381c72:	41 56                	push   %r14
    65381c74:	41 55                	push   %r13
    65381c76:	41 54                	push   %r12
    65381c78:	55                   	push   %rbp
    65381c79:	57                   	push   %rdi
    65381c7a:	56                   	push   %rsi
    65381c7b:	53                   	push   %rbx
    65381c7c:	48 83 ec 18          	sub    $0x18,%rsp
    65381c80:	45 31 ed             	xor    %r13d,%r13d
    65381c83:	4c 89 c5             	mov    %r8,%rbp
    65381c86:	45 89 c8             	mov    %r9d,%r8d
    65381c89:	49 89 cc             	mov    %rcx,%r12
    65381c8c:	45 89 cf             	mov    %r9d,%r15d
    65381c8f:	41 c1 e8 02          	shr    $0x2,%r8d
    65381c93:	45 31 f6             	xor    %r14d,%r14d
    65381c96:	45 85 c9             	test   %r9d,%r9d
    65381c99:	0f 84 9a 00 00 00    	je     65381d39 <MxM_square+0xc9>
    65381c9f:	41 8d 41 ff          	lea    -0x1(%r9),%eax
    65381ca3:	41 8d 78 01          	lea    0x1(%r8),%edi
    65381ca7:	48 ff c0             	inc    %rax
    65381caa:	48 89 44 24 08       	mov    %rax,0x8(%rsp)
    65381caf:	45 85 c0             	test   %r8d,%r8d
    65381cb2:	74 73                	je     65381d27 <MxM_square+0xb7>
    65381cb4:	48 8b 5c 24 08       	mov    0x8(%rsp),%rbx
    65381cb9:	44 89 e8             	mov    %r13d,%eax
    65381cbc:	45 31 db             	xor    %r11d,%r11d
    65381cbf:	48 89 c6             	mov    %rax,%rsi
    65381cc2:	48 c1 e6 05          	shl    $0x5,%rsi
    65381cc6:	4c 01 e6             	add    %r12,%rsi
    65381cc9:	48 8d 04 83          	lea    (%rbx,%rax,4),%rax
    65381ccd:	31 db                	xor    %ebx,%ebx
    65381ccf:	4d 8d 14 c4          	lea    (%r12,%rax,8),%r10
    65381cd3:	0f 1f 00             	nopl   (%rax)
    65381cd6:	66 2e 0f 1f 84 00 00 	nopw   %cs:0x0(%rax,%rax,1)
    65381cdd:	00 00 00 
    65381ce0:	c5 f1 57 c9          	vxorpd %xmm1,%xmm1,%xmm1
    65381ce4:	45 89 d9             	mov    %r11d,%r9d
    65381ce7:	48 89 f0             	mov    %rsi,%rax
    65381cea:	66 0f 1f 44 00 00    	nopw   0x0(%rax,%rax,1)
    65381cf0:	c4 e2 7d 19 00       	vbroadcastsd (%rax),%ymm0
    65381cf5:	44 89 c9             	mov    %r9d,%ecx
    65381cf8:	48 c1 e1 05          	shl    $0x5,%rcx
    65381cfc:	48 83 c0 08          	add    $0x8,%rax
    65381d00:	45 01 c1             	add    %r8d,%r9d
    65381d03:	c5 fd 59 04 0a       	vmulpd (%rdx,%rcx,1),%ymm0,%ymm0
    65381d08:	c5 f5 58 c8          	vaddpd %ymm0,%ymm1,%ymm1
    65381d0c:	49 39 c2             	cmp    %rax,%r10
    65381d0f:	75 df                	jne    65381cf0 <MxM_square+0x80>
    65381d11:	89 d8                	mov    %ebx,%eax
    65381d13:	41 ff c3             	inc    %r11d
    65381d16:	48 c1 e0 05          	shl    $0x5,%rax
    65381d1a:	01 fb                	add    %edi,%ebx
    65381d1c:	c5 fd 29 4c 05 00    	vmovapd %ymm1,0x0(%rbp,%rax,1)
    65381d22:	45 39 d8             	cmp    %r11d,%r8d
    65381d25:	75 b9                	jne    65381ce0 <MxM_square+0x70>
    65381d27:	41 ff c6             	inc    %r14d
    65381d2a:	45 01 c5             	add    %r8d,%r13d
    65381d2d:	45 39 f7             	cmp    %r14d,%r15d
    65381d30:	0f 85 79 ff ff ff    	jne    65381caf <MxM_square+0x3f>
    65381d36:	c5 f8 77             	vzeroupper 
    65381d39:	48 83 c4 18          	add    $0x18,%rsp
    65381d3d:	5b                   	pop    %rbx
    65381d3e:	5e                   	pop    %rsi
    65381d3f:	5f                   	pop    %rdi
    65381d40:	5d                   	pop    %rbp
    65381d41:	41 5c                	pop    %r12
    65381d43:	41 5d                	pop    %r13
    65381d45:	41 5e                	pop    %r14
    65381d47:	41 5f                	pop    %r15
    65381d49:	c3                   	retq   
    65381d4a:	66 0f 1f 44 00 00    	nopw   0x0(%rax,%rax,1)

0000000065381d50 <MxM_square_scalar>:
    65381d50:	41 55                	push   %r13
    65381d52:	41 54                	push   %r12
    65381d54:	55                   	push   %rbp
    65381d55:	57                   	push   %rdi
    65381d56:	56                   	push   %rsi
    65381d57:	53                   	push   %rbx
    65381d58:	48 89 d6             	mov    %rdx,%rsi
    65381d5b:	48 89 cb             	mov    %rcx,%rbx
    65381d5e:	4d 89 c4             	mov    %r8,%r12
    65381d61:	44 89 ca             	mov    %r9d,%edx
    65381d64:	45 85 c9             	test   %r9d,%r9d
    65381d67:	74 6b                	je     65381dd4 <MxM_square_scalar+0x84>
    65381d69:	c5 e9 57 d2          	vxorpd %xmm2,%xmm2,%xmm2
    65381d6d:	31 ed                	xor    %ebp,%ebp
    65381d6f:	45 31 ed             	xor    %r13d,%r13d
    65381d72:	31 ff                	xor    %edi,%edi
    65381d74:	8d 0c 2a             	lea    (%rdx,%rbp,1),%ecx
    65381d77:	66 0f 1f 84 00 00 00 	nopw   0x0(%rax,%rax,1)
    65381d7e:	00 00 
    65381d80:	8d 44 3d 00          	lea    0x0(%rbp,%rdi,1),%eax
    65381d84:	c5 f8 28 ca          	vmovaps %xmm2,%xmm1
    65381d88:	41 89 fa             	mov    %edi,%r10d
    65381d8b:	4d 8d 0c c4          	lea    (%r12,%rax,8),%r9
    65381d8f:	89 e8                	mov    %ebp,%eax
    65381d91:	49 c7 01 00 00 00 00 	movq   $0x0,(%r9)
    65381d98:	0f 1f 84 00 00 00 00 	nopl   0x0(%rax,%rax,1)
    65381d9f:	00 
    65381da0:	45 89 d0             	mov    %r10d,%r8d
    65381da3:	41 89 c3             	mov    %eax,%r11d
    65381da6:	c4 a1 7b 10 04 c3    	vmovsd (%rbx,%r8,8),%xmm0
    65381dac:	ff c0                	inc    %eax
    65381dae:	41 01 d2             	add    %edx,%r10d
    65381db1:	c4 a1 7b 59 04 de    	vmulsd (%rsi,%r11,8),%xmm0,%xmm0
    65381db7:	c5 f3 58 c8          	vaddsd %xmm0,%xmm1,%xmm1
    65381dbb:	c4 c1 7b 11 09       	vmovsd %xmm1,(%r9)
    65381dc0:	39 c1                	cmp    %eax,%ecx
    65381dc2:	75 dc                	jne    65381da0 <MxM_square_scalar+0x50>
    65381dc4:	ff c7                	inc    %edi
    65381dc6:	39 fa                	cmp    %edi,%edx
    65381dc8:	75 b6                	jne    65381d80 <MxM_square_scalar+0x30>
    65381dca:	41 ff c5             	inc    %r13d
    65381dcd:	89 cd                	mov    %ecx,%ebp
    65381dcf:	44 39 ea             	cmp    %r13d,%edx
    65381dd2:	75 9e                	jne    65381d72 <MxM_square_scalar+0x22>
    65381dd4:	5b                   	pop    %rbx
    65381dd5:	5e                   	pop    %rsi
    65381dd6:	5f                   	pop    %rdi
    65381dd7:	5d                   	pop    %rbp
    65381dd8:	41 5c                	pop    %r12
    65381dda:	41 5d                	pop    %r13
    65381ddc:	c3                   	retq   
    65381ddd:	0f 1f 00             	nopl   (%rax)

0000000065381de0 <print_matrix_4x4>:
    65381de0:	56                   	push   %rsi
    65381de1:	53                   	push   %rbx
    65381de2:	48 83 ec 38          	sub    $0x38,%rsp
    65381de6:	48 89 cb             	mov    %rcx,%rbx
    65381de9:	48 8d b1 80 00 00 00 	lea    0x80(%rcx),%rsi
    65381df0:	c5 fd 28 03          	vmovapd (%rbx),%ymm0
    65381df4:	48 8d 0d 35 32 00 00 	lea    0x3235(%rip),%rcx        # 65385030 <.rdata>
    65381dfb:	c4 e3 7d 19 c3 01    	vextractf128 $0x1,%ymm0,%xmm3
    65381e01:	c4 e1 f9 7e c2       	vmovq  %xmm0,%rdx
    65381e06:	c5 f9 15 c8          	vunpckhpd %xmm0,%xmm0,%xmm1
    65381e0a:	c5 f8 28 d3          	vmovaps %xmm3,%xmm2
    65381e0e:	c5 f9 17 5c 24 20    	vmovhpd %xmm3,0x20(%rsp)
    65381e14:	c4 c1 f9 7e c8       	vmovq  %xmm1,%r8
    65381e19:	c5 f8 28 da          	vmovaps %xmm2,%xmm3
    65381e1d:	c4 c1 f9 7e d1       	vmovq  %xmm2,%r9
    65381e22:	c5 f8 28 d1          	vmovaps %xmm1,%xmm2
    65381e26:	c5 f8 28 c8          	vmovaps %xmm0,%xmm1
    65381e2a:	c5 f8 77             	vzeroupper 
    65381e2d:	48 83 c3 20          	add    $0x20,%rbx
    65381e31:	e8 3a 16 00 00       	callq  65383470 <printf>
    65381e36:	48 39 de             	cmp    %rbx,%rsi
    65381e39:	75 b5                	jne    65381df0 <print_matrix_4x4+0x10>
    65381e3b:	48 83 c4 38          	add    $0x38,%rsp
    65381e3f:	5b                   	pop    %rbx
    65381e40:	5e                   	pop    %rsi
    65381e41:	c3                   	retq   

0000000065381e42 <print_v4d>:
    65381e42:	48 83 ec 38          	sub    $0x38,%rsp
    65381e46:	c5 fd 28 01          	vmovapd (%rcx),%ymm0
    65381e4a:	48 8d 0d df 31 00 00 	lea    0x31df(%rip),%rcx        # 65385030 <.rdata>
    65381e51:	c4 e3 7d 19 c3 01    	vextractf128 $0x1,%ymm0,%xmm3
    65381e57:	c4 e1 f9 7e c2       	vmovq  %xmm0,%rdx
    65381e5c:	c5 f9 15 c8          	vunpckhpd %xmm0,%xmm0,%xmm1
    65381e60:	c5 f8 28 d3          	vmovaps %xmm3,%xmm2
    65381e64:	c5 f9 17 5c 24 20    	vmovhpd %xmm3,0x20(%rsp)
    65381e6a:	c4 c1 f9 7e c8       	vmovq  %xmm1,%r8
    65381e6f:	c5 f8 28 da          	vmovaps %xmm2,%xmm3
    65381e73:	c4 c1 f9 7e d1       	vmovq  %xmm2,%r9
    65381e78:	c5 f8 28 d1          	vmovaps %xmm1,%xmm2
    65381e7c:	c5 f8 28 c8          	vmovaps %xmm0,%xmm1
    65381e80:	c5 f8 77             	vzeroupper 
    65381e83:	e8 e8 15 00 00       	callq  65383470 <printf>
    65381e88:	90                   	nop
    65381e89:	48 83 c4 38          	add    $0x38,%rsp
    65381e8d:	c3                   	retq   
    65381e8e:	90                   	nop
    65381e8f:	90                   	nop

0000000065381e90 <mingw_onexit>:
    65381e90:	53                   	push   %rbx
    65381e91:	48 83 ec 30          	sub    $0x30,%rsp
    65381e95:	48 89 cb             	mov    %rcx,%rbx
    65381e98:	48 8b 0d 51 6a 00 00 	mov    0x6a51(%rip),%rcx        # 653888f0 <__onexitbegin>
    65381e9f:	e8 0c 04 00 00       	callq  653822b0 <_decode_pointer>
    65381ea4:	48 83 f8 ff          	cmp    $0xffffffffffffffff,%rax
    65381ea8:	48 89 44 24 20       	mov    %rax,0x20(%rsp)
    65381ead:	74 76                	je     65381f25 <mingw_onexit+0x95>
    65381eaf:	b9 08 00 00 00       	mov    $0x8,%ecx
    65381eb4:	e8 c7 14 00 00       	callq  65383380 <_lock>
    65381eb9:	48 8b 0d 30 6a 00 00 	mov    0x6a30(%rip),%rcx        # 653888f0 <__onexitbegin>
    65381ec0:	e8 eb 03 00 00       	callq  653822b0 <_decode_pointer>
    65381ec5:	48 8b 0d 2c 6a 00 00 	mov    0x6a2c(%rip),%rcx        # 653888f8 <__onexitend>
    65381ecc:	48 89 44 24 20       	mov    %rax,0x20(%rsp)
    65381ed1:	e8 da 03 00 00       	callq  653822b0 <_decode_pointer>
    65381ed6:	48 8d 54 24 20       	lea    0x20(%rsp),%rdx
    65381edb:	4c 8d 44 24 28       	lea    0x28(%rsp),%r8
    65381ee0:	48 89 d9             	mov    %rbx,%rcx
    65381ee3:	48 89 44 24 28       	mov    %rax,0x28(%rsp)
    65381ee8:	e8 b3 14 00 00       	callq  653833a0 <__dllonexit>
    65381eed:	48 8b 4c 24 20       	mov    0x20(%rsp),%rcx
    65381ef2:	48 89 c3             	mov    %rax,%rbx
    65381ef5:	e8 c6 03 00 00       	callq  653822c0 <_encode_pointer>
    65381efa:	48 8b 4c 24 28       	mov    0x28(%rsp),%rcx
    65381eff:	48 89 05 ea 69 00 00 	mov    %rax,0x69ea(%rip)        # 653888f0 <__onexitbegin>
    65381f06:	e8 b5 03 00 00       	callq  653822c0 <_encode_pointer>
    65381f0b:	b9 08 00 00 00       	mov    $0x8,%ecx
    65381f10:	48 89 05 e1 69 00 00 	mov    %rax,0x69e1(%rip)        # 653888f8 <__onexitend>
    65381f17:	e8 54 14 00 00       	callq  65383370 <_unlock>
    65381f1c:	48 89 d8             	mov    %rbx,%rax
    65381f1f:	48 83 c4 30          	add    $0x30,%rsp
    65381f23:	5b                   	pop    %rbx
    65381f24:	c3                   	retq   
    65381f25:	48 8b 05 c4 32 00 00 	mov    0x32c4(%rip),%rax        # 653851f0 <.refptr.__imp__onexit>
    65381f2c:	48 89 d9             	mov    %rbx,%rcx
    65381f2f:	ff 10                	callq  *(%rax)
    65381f31:	48 83 c4 30          	add    $0x30,%rsp
    65381f35:	5b                   	pop    %rbx
    65381f36:	c3                   	retq   
    65381f37:	66 0f 1f 84 00 00 00 	nopw   0x0(%rax,%rax,1)
    65381f3e:	00 00 

0000000065381f40 <atexit>:
    65381f40:	48 83 ec 28          	sub    $0x28,%rsp
    65381f44:	e8 47 ff ff ff       	callq  65381e90 <mingw_onexit>
    65381f49:	48 85 c0             	test   %rax,%rax
    65381f4c:	0f 94 c0             	sete   %al
    65381f4f:	0f b6 c0             	movzbl %al,%eax
    65381f52:	f7 d8                	neg    %eax
    65381f54:	48 83 c4 28          	add    $0x28,%rsp
    65381f58:	c3                   	retq   
    65381f59:	90                   	nop
    65381f5a:	90                   	nop
    65381f5b:	90                   	nop
    65381f5c:	90                   	nop
    65381f5d:	90                   	nop
    65381f5e:	90                   	nop
    65381f5f:	90                   	nop

0000000065381f60 <__do_global_dtors>:
    65381f60:	48 83 ec 28          	sub    $0x28,%rsp
    65381f64:	48 8b 05 95 20 00 00 	mov    0x2095(%rip),%rax        # 65384000 <__data_start__>
    65381f6b:	48 8b 00             	mov    (%rax),%rax
    65381f6e:	48 85 c0             	test   %rax,%rax
    65381f71:	74 1d                	je     65381f90 <__do_global_dtors+0x30>
    65381f73:	ff d0                	callq  *%rax
    65381f75:	48 8b 05 84 20 00 00 	mov    0x2084(%rip),%rax        # 65384000 <__data_start__>
    65381f7c:	48 8d 50 08          	lea    0x8(%rax),%rdx
    65381f80:	48 8b 40 08          	mov    0x8(%rax),%rax
    65381f84:	48 89 15 75 20 00 00 	mov    %rdx,0x2075(%rip)        # 65384000 <__data_start__>
    65381f8b:	48 85 c0             	test   %rax,%rax
    65381f8e:	75 e3                	jne    65381f73 <__do_global_dtors+0x13>
    65381f90:	48 83 c4 28          	add    $0x28,%rsp
    65381f94:	c3                   	retq   
    65381f95:	90                   	nop
    65381f96:	66 2e 0f 1f 84 00 00 	nopw   %cs:0x0(%rax,%rax,1)
    65381f9d:	00 00 00 

0000000065381fa0 <__do_global_ctors>:
    65381fa0:	56                   	push   %rsi
    65381fa1:	53                   	push   %rbx
    65381fa2:	48 83 ec 28          	sub    $0x28,%rsp
    65381fa6:	48 8b 35 f3 31 00 00 	mov    0x31f3(%rip),%rsi        # 653851a0 <.refptr.__CTOR_LIST__>
    65381fad:	48 8b 06             	mov    (%rsi),%rax
    65381fb0:	83 f8 ff             	cmp    $0xffffffff,%eax
    65381fb3:	89 c3                	mov    %eax,%ebx
    65381fb5:	74 29                	je     65381fe0 <__do_global_ctors+0x40>
    65381fb7:	85 db                	test   %ebx,%ebx
    65381fb9:	74 0f                	je     65381fca <__do_global_ctors+0x2a>
    65381fbb:	0f 1f 44 00 00       	nopl   0x0(%rax,%rax,1)
    65381fc0:	89 d8                	mov    %ebx,%eax
    65381fc2:	ff 14 c6             	callq  *(%rsi,%rax,8)
    65381fc5:	83 eb 01             	sub    $0x1,%ebx
    65381fc8:	75 f6                	jne    65381fc0 <__do_global_ctors+0x20>
    65381fca:	48 8d 0d 8f ff ff ff 	lea    -0x71(%rip),%rcx        # 65381f60 <__do_global_dtors>
    65381fd1:	48 83 c4 28          	add    $0x28,%rsp
    65381fd5:	5b                   	pop    %rbx
    65381fd6:	5e                   	pop    %rsi
    65381fd7:	e9 64 ff ff ff       	jmpq   65381f40 <atexit>
    65381fdc:	0f 1f 40 00          	nopl   0x0(%rax)
    65381fe0:	31 db                	xor    %ebx,%ebx
    65381fe2:	eb 02                	jmp    65381fe6 <__do_global_ctors+0x46>
    65381fe4:	89 c3                	mov    %eax,%ebx
    65381fe6:	8d 53 01             	lea    0x1(%rbx),%edx
    65381fe9:	48 83 3c d6 00       	cmpq   $0x0,(%rsi,%rdx,8)
    65381fee:	48 89 d0             	mov    %rdx,%rax
    65381ff1:	75 f1                	jne    65381fe4 <__do_global_ctors+0x44>
    65381ff3:	eb c2                	jmp    65381fb7 <__do_global_ctors+0x17>
    65381ff5:	90                   	nop
    65381ff6:	66 2e 0f 1f 84 00 00 	nopw   %cs:0x0(%rax,%rax,1)
    65381ffd:	00 00 00 

0000000065382000 <__main>:
    65382000:	8b 05 0a 60 00 00    	mov    0x600a(%rip),%eax        # 65388010 <initialized>
    65382006:	85 c0                	test   %eax,%eax
    65382008:	74 06                	je     65382010 <__main+0x10>
    6538200a:	f3 c3                	repz retq 
    6538200c:	0f 1f 40 00          	nopl   0x0(%rax)
    65382010:	c7 05 f6 5f 00 00 01 	movl   $0x1,0x5ff6(%rip)        # 65388010 <initialized>
    65382017:	00 00 00 
    6538201a:	eb 84                	jmp    65381fa0 <__do_global_ctors>
    6538201c:	90                   	nop
    6538201d:	90                   	nop
    6538201e:	90                   	nop
    6538201f:	90                   	nop

0000000065382020 <__security_init_cookie>:
    65382020:	41 54                	push   %r12
    65382022:	55                   	push   %rbp
    65382023:	57                   	push   %rdi
    65382024:	56                   	push   %rsi
    65382025:	53                   	push   %rbx
    65382026:	48 83 ec 40          	sub    $0x40,%rsp
    6538202a:	48 8b 1d ff 1f 00 00 	mov    0x1fff(%rip),%rbx        # 65384030 <__security_cookie>
    65382031:	48 b8 32 a2 df 2d 99 	movabs $0x2b992ddfa232,%rax
    65382038:	2b 00 00 
    6538203b:	48 c7 44 24 20 00 00 	movq   $0x0,0x20(%rsp)
    65382042:	00 00 
    65382044:	48 39 c3             	cmp    %rax,%rbx
    65382047:	74 17                	je     65382060 <__security_init_cookie+0x40>
    65382049:	48 f7 d3             	not    %rbx
    6538204c:	48 89 1d ed 1f 00 00 	mov    %rbx,0x1fed(%rip)        # 65384040 <__security_cookie_complement>
    65382053:	48 83 c4 40          	add    $0x40,%rsp
    65382057:	5b                   	pop    %rbx
    65382058:	5e                   	pop    %rsi
    65382059:	5f                   	pop    %rdi
    6538205a:	5d                   	pop    %rbp
    6538205b:	41 5c                	pop    %r12
    6538205d:	c3                   	retq   
    6538205e:	66 90                	xchg   %ax,%ax
    65382060:	48 8d 4c 24 20       	lea    0x20(%rsp),%rcx
    65382065:	ff 15 71 81 00 00    	callq  *0x8171(%rip)        # 6538a1dc <__imp_GetSystemTimeAsFileTime>
    6538206b:	4c 8b 64 24 20       	mov    0x20(%rsp),%r12
    65382070:	ff 15 3e 81 00 00    	callq  *0x813e(%rip)        # 6538a1b4 <__imp_GetCurrentProcessId>
    65382076:	89 c7                	mov    %eax,%edi
    65382078:	ff 15 3e 81 00 00    	callq  *0x813e(%rip)        # 6538a1bc <__imp_GetCurrentThreadId>
    6538207e:	89 c6                	mov    %eax,%esi
    65382080:	ff 15 5e 81 00 00    	callq  *0x815e(%rip)        # 6538a1e4 <__imp_GetTickCount>
    65382086:	48 8d 4c 24 30       	lea    0x30(%rsp),%rcx
    6538208b:	89 c5                	mov    %eax,%ebp
    6538208d:	ff 15 69 81 00 00    	callq  *0x8169(%rip)        # 6538a1fc <__imp_QueryPerformanceCounter>
    65382093:	4c 33 64 24 30       	xor    0x30(%rsp),%r12
    65382098:	89 f2                	mov    %esi,%edx
    6538209a:	48 b8 ff ff ff ff ff 	movabs $0xffffffffffff,%rax
    653820a1:	ff 00 00 
    653820a4:	4c 31 e7             	xor    %r12,%rdi
    653820a7:	48 31 d7             	xor    %rdx,%rdi
    653820aa:	48 89 fe             	mov    %rdi,%rsi
    653820ad:	48 31 ee             	xor    %rbp,%rsi
    653820b0:	48 21 c6             	and    %rax,%rsi
    653820b3:	48 39 de             	cmp    %rbx,%rsi
    653820b6:	74 28                	je     653820e0 <__security_init_cookie+0xc0>
    653820b8:	48 89 f0             	mov    %rsi,%rax
    653820bb:	48 f7 d0             	not    %rax
    653820be:	48 89 35 6b 1f 00 00 	mov    %rsi,0x1f6b(%rip)        # 65384030 <__security_cookie>
    653820c5:	48 89 05 74 1f 00 00 	mov    %rax,0x1f74(%rip)        # 65384040 <__security_cookie_complement>
    653820cc:	48 83 c4 40          	add    $0x40,%rsp
    653820d0:	5b                   	pop    %rbx
    653820d1:	5e                   	pop    %rsi
    653820d2:	5f                   	pop    %rdi
    653820d3:	5d                   	pop    %rbp
    653820d4:	41 5c                	pop    %r12
    653820d6:	c3                   	retq   
    653820d7:	66 0f 1f 84 00 00 00 	nopw   0x0(%rax,%rax,1)
    653820de:	00 00 
    653820e0:	48 b8 cc 5d 20 d2 66 	movabs $0xffffd466d2205dcc,%rax
    653820e7:	d4 ff ff 
    653820ea:	48 be 33 a2 df 2d 99 	movabs $0x2b992ddfa233,%rsi
    653820f1:	2b 00 00 
    653820f4:	eb c8                	jmp    653820be <__security_init_cookie+0x9e>
    653820f6:	66 2e 0f 1f 84 00 00 	nopw   %cs:0x0(%rax,%rax,1)
    653820fd:	00 00 00 

0000000065382100 <__report_gsfailure>:
    65382100:	55                   	push   %rbp
    65382101:	56                   	push   %rsi
    65382102:	53                   	push   %rbx
    65382103:	48 89 e5             	mov    %rsp,%rbp
    65382106:	48 83 ec 70          	sub    $0x70,%rsp
    6538210a:	48 89 ce             	mov    %rcx,%rsi
    6538210d:	48 8d 0d 0c 5f 00 00 	lea    0x5f0c(%rip),%rcx        # 65388020 <GS_ContextRecord>
    65382114:	ff 15 f2 80 00 00    	callq  *0x80f2(%rip)        # 6538a20c <__imp_RtlCaptureContext>
    6538211a:	48 8b 1d f7 5f 00 00 	mov    0x5ff7(%rip),%rbx        # 65388118 <GS_ContextRecord+0xf8>
    65382121:	45 31 c0             	xor    %r8d,%r8d
    65382124:	48 8d 55 d8          	lea    -0x28(%rbp),%rdx
    65382128:	48 89 d9             	mov    %rbx,%rcx
    6538212b:	ff 15 e3 80 00 00    	callq  *0x80e3(%rip)        # 6538a214 <__imp_RtlLookupFunctionEntry>
    65382131:	48 85 c0             	test   %rax,%rax
    65382134:	49 89 c1             	mov    %rax,%r9
    65382137:	0f 84 a3 00 00 00    	je     653821e0 <__report_gsfailure+0xe0>
    6538213d:	48 8d 45 e0          	lea    -0x20(%rbp),%rax
    65382141:	48 c7 44 24 38 00 00 	movq   $0x0,0x38(%rsp)
    65382148:	00 00 
    6538214a:	49 89 d8             	mov    %rbx,%r8
    6538214d:	48 8b 55 d8          	mov    -0x28(%rbp),%rdx
    65382151:	31 c9                	xor    %ecx,%ecx
    65382153:	48 89 44 24 30       	mov    %rax,0x30(%rsp)
    65382158:	48 8d 45 e8          	lea    -0x18(%rbp),%rax
    6538215c:	48 89 44 24 28       	mov    %rax,0x28(%rsp)
    65382161:	48 8d 05 b8 5e 00 00 	lea    0x5eb8(%rip),%rax        # 65388020 <GS_ContextRecord>
    65382168:	48 89 44 24 20       	mov    %rax,0x20(%rsp)
    6538216d:	ff 15 a9 80 00 00    	callq  *0x80a9(%rip)        # 6538a21c <__imp_RtlVirtualUnwind>
    65382173:	48 8b 05 9e 5f 00 00 	mov    0x5f9e(%rip),%rax        # 65388118 <GS_ContextRecord+0xf8>
    6538217a:	31 c9                	xor    %ecx,%ecx
    6538217c:	48 89 35 1d 5f 00 00 	mov    %rsi,0x5f1d(%rip)        # 653880a0 <GS_ContextRecord+0x80>
    65382183:	c7 05 73 63 00 00 09 	movl   $0xc0000409,0x6373(%rip)        # 65388500 <GS_ExceptionRecord>
    6538218a:	04 00 c0 
    6538218d:	c7 05 6d 63 00 00 01 	movl   $0x1,0x636d(%rip)        # 65388504 <GS_ExceptionRecord+0x4>
    65382194:	00 00 00 
    65382197:	48 89 05 72 63 00 00 	mov    %rax,0x6372(%rip)        # 65388510 <GS_ExceptionRecord+0x10>
    6538219e:	48 8b 05 8b 1e 00 00 	mov    0x1e8b(%rip),%rax        # 65384030 <__security_cookie>
    653821a5:	48 89 45 f0          	mov    %rax,-0x10(%rbp)
    653821a9:	48 8b 05 90 1e 00 00 	mov    0x1e90(%rip),%rax        # 65384040 <__security_cookie_complement>
    653821b0:	48 89 45 f8          	mov    %rax,-0x8(%rbp)
    653821b4:	ff 15 6a 80 00 00    	callq  *0x806a(%rip)        # 6538a224 <__imp_SetUnhandledExceptionFilter>
    653821ba:	48 8d 0d 8f 2e 00 00 	lea    0x2e8f(%rip),%rcx        # 65385050 <GS_ExceptionPointers>
    653821c1:	ff 15 7d 80 00 00    	callq  *0x807d(%rip)        # 6538a244 <__imp_UnhandledExceptionFilter>
    653821c7:	ff 15 df 7f 00 00    	callq  *0x7fdf(%rip)        # 6538a1ac <__imp_GetCurrentProcess>
    653821cd:	ba 09 04 00 c0       	mov    $0xc0000409,%edx
    653821d2:	48 89 c1             	mov    %rax,%rcx
    653821d5:	ff 15 59 80 00 00    	callq  *0x8059(%rip)        # 6538a234 <__imp_TerminateProcess>
    653821db:	e8 88 11 00 00       	callq  65383368 <abort>
    653821e0:	48 8b 45 18          	mov    0x18(%rbp),%rax
    653821e4:	48 89 05 2d 5f 00 00 	mov    %rax,0x5f2d(%rip)        # 65388118 <GS_ContextRecord+0xf8>
    653821eb:	48 8d 45 08          	lea    0x8(%rbp),%rax
    653821ef:	48 89 05 c2 5e 00 00 	mov    %rax,0x5ec2(%rip)        # 653880b8 <GS_ContextRecord+0x98>
    653821f6:	e9 78 ff ff ff       	jmpq   65382173 <__report_gsfailure+0x73>
    653821fb:	90                   	nop
    653821fc:	90                   	nop
    653821fd:	90                   	nop
    653821fe:	90                   	nop
    653821ff:	90                   	nop

0000000065382200 <__dyn_tls_dtor>:
    65382200:	48 83 ec 28          	sub    $0x28,%rsp
    65382204:	83 fa 03             	cmp    $0x3,%edx
    65382207:	74 17                	je     65382220 <__dyn_tls_dtor+0x20>
    65382209:	85 d2                	test   %edx,%edx
    6538220b:	74 13                	je     65382220 <__dyn_tls_dtor+0x20>
    6538220d:	b8 01 00 00 00       	mov    $0x1,%eax
    65382212:	48 83 c4 28          	add    $0x28,%rsp
    65382216:	c3                   	retq   
    65382217:	66 0f 1f 84 00 00 00 	nopw   0x0(%rax,%rax,1)
    6538221e:	00 00 
    65382220:	e8 5b 0b 00 00       	callq  65382d80 <__mingw_TLScallback>
    65382225:	b8 01 00 00 00       	mov    $0x1,%eax
    6538222a:	48 83 c4 28          	add    $0x28,%rsp
    6538222e:	c3                   	retq   
    6538222f:	90                   	nop

0000000065382230 <__dyn_tls_init>:
    65382230:	56                   	push   %rsi
    65382231:	53                   	push   %rbx
    65382232:	48 83 ec 28          	sub    $0x28,%rsp
    65382236:	48 8b 05 53 2f 00 00 	mov    0x2f53(%rip),%rax        # 65385190 <.refptr._CRT_MT>
    6538223d:	83 38 02             	cmpl   $0x2,(%rax)
    65382240:	74 06                	je     65382248 <__dyn_tls_init+0x18>
    65382242:	c7 00 02 00 00 00    	movl   $0x2,(%rax)
    65382248:	83 fa 02             	cmp    $0x2,%edx
    6538224b:	74 13                	je     65382260 <__dyn_tls_init+0x30>
    6538224d:	83 fa 01             	cmp    $0x1,%edx
    65382250:	74 40                	je     65382292 <__dyn_tls_init+0x62>
    65382252:	b8 01 00 00 00       	mov    $0x1,%eax
    65382257:	48 83 c4 28          	add    $0x28,%rsp
    6538225b:	5b                   	pop    %rbx
    6538225c:	5e                   	pop    %rsi
    6538225d:	c3                   	retq   
    6538225e:	66 90                	xchg   %ax,%ax
    65382260:	48 8d 1d e9 8d 00 00 	lea    0x8de9(%rip),%rbx        # 6538b050 <__xd_z>
    65382267:	48 8d 35 e2 8d 00 00 	lea    0x8de2(%rip),%rsi        # 6538b050 <__xd_z>
    6538226e:	48 39 f3             	cmp    %rsi,%rbx
    65382271:	74 df                	je     65382252 <__dyn_tls_init+0x22>
    65382273:	48 8b 03             	mov    (%rbx),%rax
    65382276:	48 85 c0             	test   %rax,%rax
    65382279:	74 02                	je     6538227d <__dyn_tls_init+0x4d>
    6538227b:	ff d0                	callq  *%rax
    6538227d:	48 83 c3 08          	add    $0x8,%rbx
    65382281:	48 39 f3             	cmp    %rsi,%rbx
    65382284:	75 ed                	jne    65382273 <__dyn_tls_init+0x43>
    65382286:	b8 01 00 00 00       	mov    $0x1,%eax
    6538228b:	48 83 c4 28          	add    $0x28,%rsp
    6538228f:	5b                   	pop    %rbx
    65382290:	5e                   	pop    %rsi
    65382291:	c3                   	retq   
    65382292:	e8 e9 0a 00 00       	callq  65382d80 <__mingw_TLScallback>
    65382297:	eb b9                	jmp    65382252 <__dyn_tls_init+0x22>
    65382299:	0f 1f 80 00 00 00 00 	nopl   0x0(%rax)

00000000653822a0 <__tlregdtor>:
    653822a0:	31 c0                	xor    %eax,%eax
    653822a2:	c3                   	retq   
    653822a3:	90                   	nop
    653822a4:	90                   	nop
    653822a5:	90                   	nop
    653822a6:	90                   	nop
    653822a7:	90                   	nop
    653822a8:	90                   	nop
    653822a9:	90                   	nop
    653822aa:	90                   	nop
    653822ab:	90                   	nop
    653822ac:	90                   	nop
    653822ad:	90                   	nop
    653822ae:	90                   	nop
    653822af:	90                   	nop

00000000653822b0 <_decode_pointer>:
    653822b0:	48 89 c8             	mov    %rcx,%rax
    653822b3:	c3                   	retq   
    653822b4:	66 90                	xchg   %ax,%ax
    653822b6:	66 2e 0f 1f 84 00 00 	nopw   %cs:0x0(%rax,%rax,1)
    653822bd:	00 00 00 

00000000653822c0 <_encode_pointer>:
    653822c0:	48 89 c8             	mov    %rcx,%rax
    653822c3:	c3                   	retq   
    653822c4:	90                   	nop
    653822c5:	90                   	nop
    653822c6:	90                   	nop
    653822c7:	90                   	nop
    653822c8:	90                   	nop
    653822c9:	90                   	nop
    653822ca:	90                   	nop
    653822cb:	90                   	nop
    653822cc:	90                   	nop
    653822cd:	90                   	nop
    653822ce:	90                   	nop
    653822cf:	90                   	nop

00000000653822d0 <__report_error>:
    653822d0:	56                   	push   %rsi
    653822d1:	53                   	push   %rbx
    653822d2:	48 83 ec 38          	sub    $0x38,%rsp
    653822d6:	48 8d 44 24 58       	lea    0x58(%rsp),%rax
    653822db:	48 89 cb             	mov    %rcx,%rbx
    653822de:	48 89 54 24 58       	mov    %rdx,0x58(%rsp)
    653822e3:	4c 89 44 24 60       	mov    %r8,0x60(%rsp)
    653822e8:	4c 89 4c 24 68       	mov    %r9,0x68(%rsp)
    653822ed:	48 89 44 24 28       	mov    %rax,0x28(%rsp)
    653822f2:	e8 a1 10 00 00       	callq  65383398 <__iob_func>
    653822f7:	48 8d 0d 72 2d 00 00 	lea    0x2d72(%rip),%rcx        # 65385070 <.rdata>
    653822fe:	4c 8d 48 60          	lea    0x60(%rax),%r9
    65382302:	41 b8 1b 00 00 00    	mov    $0x1b,%r8d
    65382308:	ba 01 00 00 00       	mov    $0x1,%edx
    6538230d:	e8 3e 10 00 00       	callq  65383350 <fwrite>
    65382312:	48 8b 74 24 28       	mov    0x28(%rsp),%rsi
    65382317:	e8 7c 10 00 00       	callq  65383398 <__iob_func>
    6538231c:	48 8d 48 60          	lea    0x60(%rax),%rcx
    65382320:	48 89 da             	mov    %rbx,%rdx
    65382323:	49 89 f0             	mov    %rsi,%r8
    65382326:	e8 f5 0f 00 00       	callq  65383320 <vfprintf>
    6538232b:	e8 38 10 00 00       	callq  65383368 <abort>
    65382330:	90                   	nop
    65382331:	0f 1f 44 00 00       	nopl   0x0(%rax,%rax,1)
    65382336:	66 2e 0f 1f 84 00 00 	nopw   %cs:0x0(%rax,%rax,1)
    6538233d:	00 00 00 

0000000065382340 <__write_memory.part.0>:
    65382340:	41 55                	push   %r13
    65382342:	41 54                	push   %r12
    65382344:	55                   	push   %rbp
    65382345:	57                   	push   %rdi
    65382346:	56                   	push   %rsi
    65382347:	53                   	push   %rbx
    65382348:	48 83 ec 58          	sub    $0x58,%rsp
    6538234c:	48 63 2d 71 62 00 00 	movslq 0x6271(%rip),%rbp        # 653885c4 <maxSections>
    65382353:	48 89 cb             	mov    %rcx,%rbx
    65382356:	48 89 d6             	mov    %rdx,%rsi
    65382359:	4c 89 c7             	mov    %r8,%rdi
    6538235c:	85 ed                	test   %ebp,%ebp
    6538235e:	0f 8e f3 00 00 00    	jle    65382457 <__write_memory.part.0+0x117>
    65382364:	48 8b 05 5d 62 00 00 	mov    0x625d(%rip),%rax        # 653885c8 <the_secs>
    6538236b:	31 d2                	xor    %edx,%edx
    6538236d:	48 83 c0 08          	add    $0x8,%rax
    65382371:	48 8b 08             	mov    (%rax),%rcx
    65382374:	48 39 cb             	cmp    %rcx,%rbx
    65382377:	72 14                	jb     6538238d <__write_memory.part.0+0x4d>
    65382379:	4c 8b 40 08          	mov    0x8(%rax),%r8
    6538237d:	45 8b 40 08          	mov    0x8(%r8),%r8d
    65382381:	4c 01 c1             	add    %r8,%rcx
    65382384:	48 39 cb             	cmp    %rcx,%rbx
    65382387:	0f 82 b0 00 00 00    	jb     6538243d <__write_memory.part.0+0xfd>
    6538238d:	83 c2 01             	add    $0x1,%edx
    65382390:	48 83 c0 18          	add    $0x18,%rax
    65382394:	39 ea                	cmp    %ebp,%edx
    65382396:	75 d9                	jne    65382371 <__write_memory.part.0+0x31>
    65382398:	48 89 d9             	mov    %rbx,%rcx
    6538239b:	e8 f0 0b 00 00       	callq  65382f90 <__mingw_GetSectionForAddress>
    653823a0:	48 85 c0             	test   %rax,%rax
    653823a3:	49 89 c4             	mov    %rax,%r12
    653823a6:	0f 84 e3 00 00 00    	je     6538248f <__write_memory.part.0+0x14f>
    653823ac:	48 8d 6c 6d 00       	lea    0x0(%rbp,%rbp,2),%rbp
    653823b1:	48 c1 e5 03          	shl    $0x3,%rbp
    653823b5:	49 89 ed             	mov    %rbp,%r13
    653823b8:	4c 03 2d 09 62 00 00 	add    0x6209(%rip),%r13        # 653885c8 <the_secs>
    653823bf:	49 89 45 10          	mov    %rax,0x10(%r13)
    653823c3:	41 c7 45 00 00 00 00 	movl   $0x0,0x0(%r13)
    653823ca:	00 
    653823cb:	e8 30 0d 00 00       	callq  65383100 <_GetPEImageBase>
    653823d0:	41 8b 54 24 0c       	mov    0xc(%r12),%edx
    653823d5:	41 b8 30 00 00 00    	mov    $0x30,%r8d
    653823db:	48 01 d0             	add    %rdx,%rax
    653823de:	48 8d 54 24 20       	lea    0x20(%rsp),%rdx
    653823e3:	49 89 45 08          	mov    %rax,0x8(%r13)
    653823e7:	48 8b 05 da 61 00 00 	mov    0x61da(%rip),%rax        # 653885c8 <the_secs>
    653823ee:	48 8b 4c 28 08       	mov    0x8(%rax,%rbp,1),%rcx
    653823f3:	ff 15 5b 7e 00 00    	callq  *0x7e5b(%rip)        # 6538a254 <__imp_VirtualQuery>
    653823f9:	48 85 c0             	test   %rax,%rax
    653823fc:	74 74                	je     65382472 <__write_memory.part.0+0x132>
    653823fe:	8b 44 24 44          	mov    0x44(%rsp),%eax
    65382402:	8d 50 c0             	lea    -0x40(%rax),%edx
    65382405:	83 e2 bf             	and    $0xffffffbf,%edx
    65382408:	74 2c                	je     65382436 <__write_memory.part.0+0xf6>
    6538240a:	83 e8 04             	sub    $0x4,%eax
    6538240d:	83 e0 fb             	and    $0xfffffffb,%eax
    65382410:	74 24                	je     65382436 <__write_memory.part.0+0xf6>
    65382412:	49 89 e9             	mov    %rbp,%r9
    65382415:	4c 03 0d ac 61 00 00 	add    0x61ac(%rip),%r9        # 653885c8 <the_secs>
    6538241c:	41 b8 40 00 00 00    	mov    $0x40,%r8d
    65382422:	48 8b 54 24 38       	mov    0x38(%rsp),%rdx
    65382427:	48 8b 4c 24 20       	mov    0x20(%rsp),%rcx
    6538242c:	ff 15 1a 7e 00 00    	callq  *0x7e1a(%rip)        # 6538a24c <__imp_VirtualProtect>
    65382432:	85 c0                	test   %eax,%eax
    65382434:	74 28                	je     6538245e <__write_memory.part.0+0x11e>
    65382436:	83 05 87 61 00 00 01 	addl   $0x1,0x6187(%rip)        # 653885c4 <maxSections>
    6538243d:	49 89 f8             	mov    %rdi,%r8
    65382440:	48 89 f2             	mov    %rsi,%rdx
    65382443:	48 89 d9             	mov    %rbx,%rcx
    65382446:	48 83 c4 58          	add    $0x58,%rsp
    6538244a:	5b                   	pop    %rbx
    6538244b:	5e                   	pop    %rsi
    6538244c:	5f                   	pop    %rdi
    6538244d:	5d                   	pop    %rbp
    6538244e:	41 5c                	pop    %r12
    65382450:	41 5d                	pop    %r13
    65382452:	e9 e9 0e 00 00       	jmpq   65383340 <memcpy>
    65382457:	31 ed                	xor    %ebp,%ebp
    65382459:	e9 3a ff ff ff       	jmpq   65382398 <__write_memory.part.0+0x58>
    6538245e:	ff 15 60 7d 00 00    	callq  *0x7d60(%rip)        # 6538a1c4 <__imp_GetLastError>
    65382464:	48 8d 0d 7d 2c 00 00 	lea    0x2c7d(%rip),%rcx        # 653850e8 <.rdata+0x78>
    6538246b:	89 c2                	mov    %eax,%edx
    6538246d:	e8 5e fe ff ff       	callq  653822d0 <__report_error>
    65382472:	48 8b 05 4f 61 00 00 	mov    0x614f(%rip),%rax        # 653885c8 <the_secs>
    65382479:	41 8b 54 24 08       	mov    0x8(%r12),%edx
    6538247e:	48 8d 0d 2b 2c 00 00 	lea    0x2c2b(%rip),%rcx        # 653850b0 <.rdata+0x40>
    65382485:	4c 8b 44 28 08       	mov    0x8(%rax,%rbp,1),%r8
    6538248a:	e8 41 fe ff ff       	callq  653822d0 <__report_error>
    6538248f:	48 8d 0d fa 2b 00 00 	lea    0x2bfa(%rip),%rcx        # 65385090 <.rdata+0x20>
    65382496:	48 89 da             	mov    %rbx,%rdx
    65382499:	e8 32 fe ff ff       	callq  653822d0 <__report_error>
    6538249e:	90                   	nop
    6538249f:	90                   	nop

00000000653824a0 <_pei386_runtime_relocator>:
    653824a0:	55                   	push   %rbp
    653824a1:	41 56                	push   %r14
    653824a3:	41 55                	push   %r13
    653824a5:	41 54                	push   %r12
    653824a7:	57                   	push   %rdi
    653824a8:	56                   	push   %rsi
    653824a9:	53                   	push   %rbx
    653824aa:	48 89 e5             	mov    %rsp,%rbp
    653824ad:	48 83 ec 60          	sub    $0x60,%rsp
    653824b1:	8b 1d 09 61 00 00    	mov    0x6109(%rip),%ebx        # 653885c0 <was_init.93519>
    653824b7:	85 db                	test   %ebx,%ebx
    653824b9:	74 15                	je     653824d0 <_pei386_runtime_relocator+0x30>
    653824bb:	48 89 ec             	mov    %rbp,%rsp
    653824be:	5b                   	pop    %rbx
    653824bf:	5e                   	pop    %rsi
    653824c0:	5f                   	pop    %rdi
    653824c1:	41 5c                	pop    %r12
    653824c3:	41 5d                	pop    %r13
    653824c5:	41 5e                	pop    %r14
    653824c7:	5d                   	pop    %rbp
    653824c8:	c3                   	retq   
    653824c9:	0f 1f 80 00 00 00 00 	nopl   0x0(%rax)
    653824d0:	c7 05 e6 60 00 00 01 	movl   $0x1,0x60e6(%rip)        # 653885c0 <was_init.93519>
    653824d7:	00 00 00 
    653824da:	e8 51 0b 00 00       	callq  65383030 <__mingw_GetSectionCount>
    653824df:	48 98                	cltq   
    653824e1:	48 8d 04 40          	lea    (%rax,%rax,2),%rax
    653824e5:	48 8d 04 c5 1e 00 00 	lea    0x1e(,%rax,8),%rax
    653824ec:	00 
    653824ed:	48 83 e0 f0          	and    $0xfffffffffffffff0,%rax
    653824f1:	e8 ca 0d 00 00       	callq  653832c0 <___chkstk_ms>
    653824f6:	48 8b 35 b3 2c 00 00 	mov    0x2cb3(%rip),%rsi        # 653851b0 <.refptr.__RUNTIME_PSEUDO_RELOC_LIST_END__>
    653824fd:	48 8b 1d bc 2c 00 00 	mov    0x2cbc(%rip),%rbx        # 653851c0 <.refptr.__RUNTIME_PSEUDO_RELOC_LIST__>
    65382504:	48 29 c4             	sub    %rax,%rsp
    65382507:	c7 05 b3 60 00 00 00 	movl   $0x0,0x60b3(%rip)        # 653885c4 <maxSections>
    6538250e:	00 00 00 
    65382511:	48 8d 44 24 20       	lea    0x20(%rsp),%rax
    65382516:	48 89 05 ab 60 00 00 	mov    %rax,0x60ab(%rip)        # 653885c8 <the_secs>
    6538251d:	48 89 f0             	mov    %rsi,%rax
    65382520:	48 29 d8             	sub    %rbx,%rax
    65382523:	48 83 f8 07          	cmp    $0x7,%rax
    65382527:	7e 92                	jle    653824bb <_pei386_runtime_relocator+0x1b>
    65382529:	48 83 f8 0b          	cmp    $0xb,%rax
    6538252d:	7e 26                	jle    65382555 <_pei386_runtime_relocator+0xb5>
    6538252f:	44 8b 1b             	mov    (%rbx),%r11d
    65382532:	45 85 db             	test   %r11d,%r11d
    65382535:	0f 85 45 01 00 00    	jne    65382680 <_pei386_runtime_relocator+0x1e0>
    6538253b:	44 8b 53 04          	mov    0x4(%rbx),%r10d
    6538253f:	45 85 d2             	test   %r10d,%r10d
    65382542:	0f 85 38 01 00 00    	jne    65382680 <_pei386_runtime_relocator+0x1e0>
    65382548:	44 8b 4b 08          	mov    0x8(%rbx),%r9d
    6538254c:	45 85 c9             	test   %r9d,%r9d
    6538254f:	75 1b                	jne    6538256c <_pei386_runtime_relocator+0xcc>
    65382551:	48 83 c3 0c          	add    $0xc,%rbx
    65382555:	44 8b 03             	mov    (%rbx),%r8d
    65382558:	45 85 c0             	test   %r8d,%r8d
    6538255b:	0f 85 1f 01 00 00    	jne    65382680 <_pei386_runtime_relocator+0x1e0>
    65382561:	8b 4b 04             	mov    0x4(%rbx),%ecx
    65382564:	85 c9                	test   %ecx,%ecx
    65382566:	0f 85 14 01 00 00    	jne    65382680 <_pei386_runtime_relocator+0x1e0>
    6538256c:	8b 53 08             	mov    0x8(%rbx),%edx
    6538256f:	83 fa 01             	cmp    $0x1,%edx
    65382572:	0f 85 14 02 00 00    	jne    6538278c <_pei386_runtime_relocator+0x2ec>
    65382578:	48 83 c3 0c          	add    $0xc,%rbx
    6538257c:	48 39 f3             	cmp    %rsi,%rbx
    6538257f:	0f 83 36 ff ff ff    	jae    653824bb <_pei386_runtime_relocator+0x1b>
    65382585:	4c 8b 25 54 2c 00 00 	mov    0x2c54(%rip),%r12        # 653851e0 <.refptr.__image_base__>
    6538258c:	4c 8d 6d d0          	lea    -0x30(%rbp),%r13
    65382590:	49 be 00 00 00 00 ff 	movabs $0xffffffff00000000,%r14
    65382597:	ff ff ff 
    6538259a:	8b 4b 04             	mov    0x4(%rbx),%ecx
    6538259d:	8b 03                	mov    (%rbx),%eax
    6538259f:	0f b6 53 08          	movzbl 0x8(%rbx),%edx
    653825a3:	4c 01 e0             	add    %r12,%rax
    653825a6:	4c 01 e1             	add    %r12,%rcx
    653825a9:	83 fa 10             	cmp    $0x10,%edx
    653825ac:	4c 8b 00             	mov    (%rax),%r8
    653825af:	0f 84 41 01 00 00    	je     653826f6 <_pei386_runtime_relocator+0x256>
    653825b5:	0f 86 02 01 00 00    	jbe    653826bd <_pei386_runtime_relocator+0x21d>
    653825bb:	83 fa 20             	cmp    $0x20,%edx
    653825be:	0f 84 7b 01 00 00    	je     6538273f <_pei386_runtime_relocator+0x29f>
    653825c4:	83 fa 40             	cmp    $0x40,%edx
    653825c7:	0f 85 5e 01 00 00    	jne    6538272b <_pei386_runtime_relocator+0x28b>
    653825cd:	49 29 c0             	sub    %rax,%r8
    653825d0:	4c 89 ea             	mov    %r13,%rdx
    653825d3:	4c 89 ef             	mov    %r13,%rdi
    653825d6:	4c 89 c0             	mov    %r8,%rax
    653825d9:	48 03 01             	add    (%rcx),%rax
    653825dc:	41 b8 08 00 00 00    	mov    $0x8,%r8d
    653825e2:	48 89 45 d0          	mov    %rax,-0x30(%rbp)
    653825e6:	e8 55 fd ff ff       	callq  65382340 <__write_memory.part.0>
    653825eb:	48 83 c3 0c          	add    $0xc,%rbx
    653825ef:	48 39 f3             	cmp    %rsi,%rbx
    653825f2:	72 a6                	jb     6538259a <_pei386_runtime_relocator+0xfa>
    653825f4:	8b 05 ca 5f 00 00    	mov    0x5fca(%rip),%eax        # 653885c4 <maxSections>
    653825fa:	31 db                	xor    %ebx,%ebx
    653825fc:	31 f6                	xor    %esi,%esi
    653825fe:	85 c0                	test   %eax,%eax
    65382600:	0f 8e b5 fe ff ff    	jle    653824bb <_pei386_runtime_relocator+0x1b>
    65382606:	4c 8b 25 47 7c 00 00 	mov    0x7c47(%rip),%r12        # 6538a254 <__imp_VirtualQuery>
    6538260d:	4c 8d 75 cc          	lea    -0x34(%rbp),%r14
    65382611:	4c 8b 2d 34 7c 00 00 	mov    0x7c34(%rip),%r13        # 6538a24c <__imp_VirtualProtect>
    65382618:	eb 19                	jmp    65382633 <_pei386_runtime_relocator+0x193>
    6538261a:	66 0f 1f 44 00 00    	nopw   0x0(%rax,%rax,1)
    65382620:	83 c6 01             	add    $0x1,%esi
    65382623:	48 83 c3 18          	add    $0x18,%rbx
    65382627:	3b 35 97 5f 00 00    	cmp    0x5f97(%rip),%esi        # 653885c4 <maxSections>
    6538262d:	0f 8d 88 fe ff ff    	jge    653824bb <_pei386_runtime_relocator+0x1b>
    65382633:	48 89 d8             	mov    %rbx,%rax
    65382636:	48 03 05 8b 5f 00 00 	add    0x5f8b(%rip),%rax        # 653885c8 <the_secs>
    6538263d:	8b 10                	mov    (%rax),%edx
    6538263f:	85 d2                	test   %edx,%edx
    65382641:	74 dd                	je     65382620 <_pei386_runtime_relocator+0x180>
    65382643:	48 8b 48 08          	mov    0x8(%rax),%rcx
    65382647:	41 b8 30 00 00 00    	mov    $0x30,%r8d
    6538264d:	48 89 fa             	mov    %rdi,%rdx
    65382650:	41 ff d4             	callq  *%r12
    65382653:	48 85 c0             	test   %rax,%rax
    65382656:	0f 84 12 01 00 00    	je     6538276e <_pei386_runtime_relocator+0x2ce>
    6538265c:	48 8b 05 65 5f 00 00 	mov    0x5f65(%rip),%rax        # 653885c8 <the_secs>
    65382663:	4d 89 f1             	mov    %r14,%r9
    65382666:	48 8b 55 e8          	mov    -0x18(%rbp),%rdx
    6538266a:	48 8b 4d d0          	mov    -0x30(%rbp),%rcx
    6538266e:	44 8b 04 18          	mov    (%rax,%rbx,1),%r8d
    65382672:	41 ff d5             	callq  *%r13
    65382675:	eb a9                	jmp    65382620 <_pei386_runtime_relocator+0x180>
    65382677:	66 0f 1f 84 00 00 00 	nopw   0x0(%rax,%rax,1)
    6538267e:	00 00 
    65382680:	48 39 f3             	cmp    %rsi,%rbx
    65382683:	0f 83 32 fe ff ff    	jae    653824bb <_pei386_runtime_relocator+0x1b>
    65382689:	4c 8b 25 50 2b 00 00 	mov    0x2b50(%rip),%r12        # 653851e0 <.refptr.__image_base__>
    65382690:	48 8d 7d d0          	lea    -0x30(%rbp),%rdi
    65382694:	8b 4b 04             	mov    0x4(%rbx),%ecx
    65382697:	8b 03                	mov    (%rbx),%eax
    65382699:	41 b8 04 00 00 00    	mov    $0x4,%r8d
    6538269f:	48 89 fa             	mov    %rdi,%rdx
    653826a2:	48 83 c3 08          	add    $0x8,%rbx
    653826a6:	4c 01 e1             	add    %r12,%rcx
    653826a9:	03 01                	add    (%rcx),%eax
    653826ab:	89 45 d0             	mov    %eax,-0x30(%rbp)
    653826ae:	e8 8d fc ff ff       	callq  65382340 <__write_memory.part.0>
    653826b3:	48 39 f3             	cmp    %rsi,%rbx
    653826b6:	72 dc                	jb     65382694 <_pei386_runtime_relocator+0x1f4>
    653826b8:	e9 37 ff ff ff       	jmpq   653825f4 <_pei386_runtime_relocator+0x154>
    653826bd:	83 fa 08             	cmp    $0x8,%edx
    653826c0:	75 69                	jne    6538272b <_pei386_runtime_relocator+0x28b>
    653826c2:	0f b6 11             	movzbl (%rcx),%edx
    653826c5:	4c 89 ef             	mov    %r13,%rdi
    653826c8:	49 89 d2             	mov    %rdx,%r10
    653826cb:	49 81 ca 00 ff ff ff 	or     $0xffffffffffffff00,%r10
    653826d2:	84 d2                	test   %dl,%dl
    653826d4:	49 0f 48 d2          	cmovs  %r10,%rdx
    653826d8:	48 29 c2             	sub    %rax,%rdx
    653826db:	4a 8d 04 02          	lea    (%rdx,%r8,1),%rax
    653826df:	41 b8 01 00 00 00    	mov    $0x1,%r8d
    653826e5:	4c 89 ea             	mov    %r13,%rdx
    653826e8:	48 89 45 d0          	mov    %rax,-0x30(%rbp)
    653826ec:	e8 4f fc ff ff       	callq  65382340 <__write_memory.part.0>
    653826f1:	e9 f5 fe ff ff       	jmpq   653825eb <_pei386_runtime_relocator+0x14b>
    653826f6:	0f b7 11             	movzwl (%rcx),%edx
    653826f9:	4c 89 ef             	mov    %r13,%rdi
    653826fc:	49 89 d2             	mov    %rdx,%r10
    653826ff:	49 81 ca 00 00 ff ff 	or     $0xffffffffffff0000,%r10
    65382706:	66 85 d2             	test   %dx,%dx
    65382709:	49 0f 48 d2          	cmovs  %r10,%rdx
    6538270d:	48 29 c2             	sub    %rax,%rdx
    65382710:	4a 8d 04 02          	lea    (%rdx,%r8,1),%rax
    65382714:	41 b8 02 00 00 00    	mov    $0x2,%r8d
    6538271a:	4c 89 ea             	mov    %r13,%rdx
    6538271d:	48 89 45 d0          	mov    %rax,-0x30(%rbp)
    65382721:	e8 1a fc ff ff       	callq  65382340 <__write_memory.part.0>
    65382726:	e9 c0 fe ff ff       	jmpq   653825eb <_pei386_runtime_relocator+0x14b>
    6538272b:	48 8d 0d 16 2a 00 00 	lea    0x2a16(%rip),%rcx        # 65385148 <.rdata+0xd8>
    65382732:	48 c7 45 d0 00 00 00 	movq   $0x0,-0x30(%rbp)
    65382739:	00 
    6538273a:	e8 91 fb ff ff       	callq  653822d0 <__report_error>
    6538273f:	8b 11                	mov    (%rcx),%edx
    65382741:	4c 89 ef             	mov    %r13,%rdi
    65382744:	49 89 d2             	mov    %rdx,%r10
    65382747:	4d 09 f2             	or     %r14,%r10
    6538274a:	85 d2                	test   %edx,%edx
    6538274c:	49 0f 48 d2          	cmovs  %r10,%rdx
    65382750:	48 29 c2             	sub    %rax,%rdx
    65382753:	4a 8d 04 02          	lea    (%rdx,%r8,1),%rax
    65382757:	41 b8 04 00 00 00    	mov    $0x4,%r8d
    6538275d:	4c 89 ea             	mov    %r13,%rdx
    65382760:	48 89 45 d0          	mov    %rax,-0x30(%rbp)
    65382764:	e8 d7 fb ff ff       	callq  65382340 <__write_memory.part.0>
    65382769:	e9 7d fe ff ff       	jmpq   653825eb <_pei386_runtime_relocator+0x14b>
    6538276e:	48 03 1d 53 5e 00 00 	add    0x5e53(%rip),%rbx        # 653885c8 <the_secs>
    65382775:	48 8d 0d 34 29 00 00 	lea    0x2934(%rip),%rcx        # 653850b0 <.rdata+0x40>
    6538277c:	48 8b 43 10          	mov    0x10(%rbx),%rax
    65382780:	4c 8b 43 08          	mov    0x8(%rbx),%r8
    65382784:	8b 50 08             	mov    0x8(%rax),%edx
    65382787:	e8 44 fb ff ff       	callq  653822d0 <__report_error>
    6538278c:	48 8d 0d 7d 29 00 00 	lea    0x297d(%rip),%rcx        # 65385110 <.rdata+0xa0>
    65382793:	e8 38 fb ff ff       	callq  653822d0 <__report_error>
    65382798:	90                   	nop
    65382799:	90                   	nop
    6538279a:	90                   	nop
    6538279b:	90                   	nop
    6538279c:	90                   	nop
    6538279d:	90                   	nop
    6538279e:	90                   	nop
    6538279f:	90                   	nop

00000000653827a0 <__mingw_SEH_error_handler>:
    653827a0:	48 83 ec 28          	sub    $0x28,%rsp
    653827a4:	8b 01                	mov    (%rcx),%eax
    653827a6:	3d 91 00 00 c0       	cmp    $0xc0000091,%eax
    653827ab:	77 63                	ja     65382810 <__mingw_SEH_error_handler+0x70>
    653827ad:	3d 8d 00 00 c0       	cmp    $0xc000008d,%eax
    653827b2:	73 7b                	jae    6538282f <__mingw_SEH_error_handler+0x8f>
    653827b4:	3d 08 00 00 c0       	cmp    $0xc0000008,%eax
    653827b9:	0f 84 0d 01 00 00    	je     653828cc <__mingw_SEH_error_handler+0x12c>
    653827bf:	0f 87 db 00 00 00    	ja     653828a0 <__mingw_SEH_error_handler+0x100>
    653827c5:	3d 02 00 00 80       	cmp    $0x80000002,%eax
    653827ca:	0f 84 fc 00 00 00    	je     653828cc <__mingw_SEH_error_handler+0x12c>
    653827d0:	3d 05 00 00 c0       	cmp    $0xc0000005,%eax
    653827d5:	0f 85 d3 00 00 00    	jne    653828ae <__mingw_SEH_error_handler+0x10e>
    653827db:	31 d2                	xor    %edx,%edx
    653827dd:	b9 0b 00 00 00       	mov    $0xb,%ecx
    653827e2:	e8 51 0b 00 00       	callq  65383338 <signal>
    653827e7:	48 83 f8 01          	cmp    $0x1,%rax
    653827eb:	0f 84 31 01 00 00    	je     65382922 <__mingw_SEH_error_handler+0x182>
    653827f1:	48 85 c0             	test   %rax,%rax
    653827f4:	0f 84 08 01 00 00    	je     65382902 <__mingw_SEH_error_handler+0x162>
    653827fa:	b9 0b 00 00 00       	mov    $0xb,%ecx
    653827ff:	ff d0                	callq  *%rax
    65382801:	31 c0                	xor    %eax,%eax
    65382803:	48 83 c4 28          	add    $0x28,%rsp
    65382807:	c3                   	retq   
    65382808:	0f 1f 84 00 00 00 00 	nopl   0x0(%rax,%rax,1)
    6538280f:	00 
    65382810:	3d 94 00 00 c0       	cmp    $0xc0000094,%eax
    65382815:	0f 84 b8 00 00 00    	je     653828d3 <__mingw_SEH_error_handler+0x133>
    6538281b:	77 43                	ja     65382860 <__mingw_SEH_error_handler+0xc0>
    6538281d:	3d 92 00 00 c0       	cmp    $0xc0000092,%eax
    65382822:	0f 84 a4 00 00 00    	je     653828cc <__mingw_SEH_error_handler+0x12c>
    65382828:	3d 93 00 00 c0       	cmp    $0xc0000093,%eax
    6538282d:	75 7f                	jne    653828ae <__mingw_SEH_error_handler+0x10e>
    6538282f:	31 d2                	xor    %edx,%edx
    65382831:	b9 08 00 00 00       	mov    $0x8,%ecx
    65382836:	e8 fd 0a 00 00       	callq  65383338 <signal>
    6538283b:	48 83 f8 01          	cmp    $0x1,%rax
    6538283f:	48 89 c2             	mov    %rax,%rdx
    65382842:	74 74                	je     653828b8 <__mingw_SEH_error_handler+0x118>
    65382844:	48 85 d2             	test   %rdx,%rdx
    65382847:	b8 01 00 00 00       	mov    $0x1,%eax
    6538284c:	74 b5                	je     65382803 <__mingw_SEH_error_handler+0x63>
    6538284e:	b9 08 00 00 00       	mov    $0x8,%ecx
    65382853:	ff d2                	callq  *%rdx
    65382855:	31 c0                	xor    %eax,%eax
    65382857:	48 83 c4 28          	add    $0x28,%rsp
    6538285b:	c3                   	retq   
    6538285c:	0f 1f 40 00          	nopl   0x0(%rax)
    65382860:	3d 95 00 00 c0       	cmp    $0xc0000095,%eax
    65382865:	74 65                	je     653828cc <__mingw_SEH_error_handler+0x12c>
    65382867:	3d 96 00 00 c0       	cmp    $0xc0000096,%eax
    6538286c:	75 40                	jne    653828ae <__mingw_SEH_error_handler+0x10e>
    6538286e:	31 d2                	xor    %edx,%edx
    65382870:	b9 04 00 00 00       	mov    $0x4,%ecx
    65382875:	e8 be 0a 00 00       	callq  65383338 <signal>
    6538287a:	48 83 f8 01          	cmp    $0x1,%rax
    6538287e:	0f 84 88 00 00 00    	je     6538290c <__mingw_SEH_error_handler+0x16c>
    65382884:	48 85 c0             	test   %rax,%rax
    65382887:	74 79                	je     65382902 <__mingw_SEH_error_handler+0x162>
    65382889:	b9 04 00 00 00       	mov    $0x4,%ecx
    6538288e:	ff d0                	callq  *%rax
    65382890:	31 c0                	xor    %eax,%eax
    65382892:	e9 6c ff ff ff       	jmpq   65382803 <__mingw_SEH_error_handler+0x63>
    65382897:	66 0f 1f 84 00 00 00 	nopw   0x0(%rax,%rax,1)
    6538289e:	00 00 
    653828a0:	3d 1d 00 00 c0       	cmp    $0xc000001d,%eax
    653828a5:	74 c7                	je     6538286e <__mingw_SEH_error_handler+0xce>
    653828a7:	3d 8c 00 00 c0       	cmp    $0xc000008c,%eax
    653828ac:	74 1e                	je     653828cc <__mingw_SEH_error_handler+0x12c>
    653828ae:	b8 01 00 00 00       	mov    $0x1,%eax
    653828b3:	48 83 c4 28          	add    $0x28,%rsp
    653828b7:	c3                   	retq   
    653828b8:	ba 01 00 00 00       	mov    $0x1,%edx
    653828bd:	b9 08 00 00 00       	mov    $0x8,%ecx
    653828c2:	e8 71 0a 00 00       	callq  65383338 <signal>
    653828c7:	e8 e4 09 00 00       	callq  653832b0 <_fpreset>
    653828cc:	31 c0                	xor    %eax,%eax
    653828ce:	48 83 c4 28          	add    $0x28,%rsp
    653828d2:	c3                   	retq   
    653828d3:	31 d2                	xor    %edx,%edx
    653828d5:	b9 08 00 00 00       	mov    $0x8,%ecx
    653828da:	e8 59 0a 00 00       	callq  65383338 <signal>
    653828df:	48 83 f8 01          	cmp    $0x1,%rax
    653828e3:	48 89 c2             	mov    %rax,%rdx
    653828e6:	0f 85 58 ff ff ff    	jne    65382844 <__mingw_SEH_error_handler+0xa4>
    653828ec:	ba 01 00 00 00       	mov    $0x1,%edx
    653828f1:	b9 08 00 00 00       	mov    $0x8,%ecx
    653828f6:	e8 3d 0a 00 00       	callq  65383338 <signal>
    653828fb:	31 c0                	xor    %eax,%eax
    653828fd:	e9 01 ff ff ff       	jmpq   65382803 <__mingw_SEH_error_handler+0x63>
    65382902:	b8 04 00 00 00       	mov    $0x4,%eax
    65382907:	48 83 c4 28          	add    $0x28,%rsp
    6538290b:	c3                   	retq   
    6538290c:	ba 01 00 00 00       	mov    $0x1,%edx
    65382911:	b9 04 00 00 00       	mov    $0x4,%ecx
    65382916:	e8 1d 0a 00 00       	callq  65383338 <signal>
    6538291b:	31 c0                	xor    %eax,%eax
    6538291d:	e9 e1 fe ff ff       	jmpq   65382803 <__mingw_SEH_error_handler+0x63>
    65382922:	ba 01 00 00 00       	mov    $0x1,%edx
    65382927:	b9 0b 00 00 00       	mov    $0xb,%ecx
    6538292c:	e8 07 0a 00 00       	callq  65383338 <signal>
    65382931:	31 c0                	xor    %eax,%eax
    65382933:	e9 cb fe ff ff       	jmpq   65382803 <__mingw_SEH_error_handler+0x63>
    65382938:	0f 1f 84 00 00 00 00 	nopl   0x0(%rax,%rax,1)
    6538293f:	00 

0000000065382940 <__mingw_init_ehandler>:
    65382940:	41 54                	push   %r12
    65382942:	55                   	push   %rbp
    65382943:	57                   	push   %rdi
    65382944:	56                   	push   %rsi
    65382945:	53                   	push   %rbx
    65382946:	48 83 ec 20          	sub    $0x20,%rsp
    6538294a:	e8 b1 07 00 00       	callq  65383100 <_GetPEImageBase>
    6538294f:	48 89 c5             	mov    %rax,%rbp
    65382952:	8b 05 90 5c 00 00    	mov    0x5c90(%rip),%eax        # 653885e8 <was_here.93351>
    65382958:	85 c0                	test   %eax,%eax
    6538295a:	75 25                	jne    65382981 <__mingw_init_ehandler+0x41>
    6538295c:	48 85 ed             	test   %rbp,%rbp
    6538295f:	74 20                	je     65382981 <__mingw_init_ehandler+0x41>
    65382961:	48 8d 0d 18 28 00 00 	lea    0x2818(%rip),%rcx        # 65385180 <.rdata>
    65382968:	c7 05 76 5c 00 00 01 	movl   $0x1,0x5c76(%rip)        # 653885e8 <was_here.93351>
    6538296f:	00 00 00 
    65382972:	e8 79 05 00 00       	callq  65382ef0 <_FindPESectionByName>
    65382977:	48 85 c0             	test   %rax,%rax
    6538297a:	74 14                	je     65382990 <__mingw_init_ehandler+0x50>
    6538297c:	b8 01 00 00 00       	mov    $0x1,%eax
    65382981:	48 83 c4 20          	add    $0x20,%rsp
    65382985:	5b                   	pop    %rbx
    65382986:	5e                   	pop    %rsi
    65382987:	5f                   	pop    %rdi
    65382988:	5d                   	pop    %rbp
    65382989:	41 5c                	pop    %r12
    6538298b:	c3                   	retq   
    6538298c:	0f 1f 40 00          	nopl   0x0(%rax)
    65382990:	48 8d 1d 69 5d 00 00 	lea    0x5d69(%rip),%rbx        # 65388700 <emu_pdata>
    65382997:	48 8d 15 62 5c 00 00 	lea    0x5c62(%rip),%rdx        # 65388600 <emu_xdata>
    6538299e:	b9 30 00 00 00       	mov    $0x30,%ecx
    653829a3:	4c 8d 25 f6 fd ff ff 	lea    -0x20a(%rip),%r12        # 653827a0 <__mingw_SEH_error_handler>
    653829aa:	31 f6                	xor    %esi,%esi
    653829ac:	48 89 df             	mov    %rbx,%rdi
    653829af:	f3 48 ab             	rep stos %rax,%es:(%rdi)
    653829b2:	b9 20 00 00 00       	mov    $0x20,%ecx
    653829b7:	48 89 d7             	mov    %rdx,%rdi
    653829ba:	49 29 ec             	sub    %rbp,%r12
    653829bd:	f3 48 ab             	rep stos %rax,%es:(%rdi)
    653829c0:	48 89 d7             	mov    %rdx,%rdi
    653829c3:	eb 2e                	jmp    653829f3 <__mingw_init_ehandler+0xb3>
    653829c5:	c6 07 09             	movb   $0x9,(%rdi)
    653829c8:	44 89 67 04          	mov    %r12d,0x4(%rdi)
    653829cc:	48 83 c6 01          	add    $0x1,%rsi
    653829d0:	8b 50 0c             	mov    0xc(%rax),%edx
    653829d3:	48 83 c3 0c          	add    $0xc,%rbx
    653829d7:	89 53 f4             	mov    %edx,-0xc(%rbx)
    653829da:	03 50 08             	add    0x8(%rax),%edx
    653829dd:	48 89 f8             	mov    %rdi,%rax
    653829e0:	48 29 e8             	sub    %rbp,%rax
    653829e3:	48 83 c7 08          	add    $0x8,%rdi
    653829e7:	89 43 fc             	mov    %eax,-0x4(%rbx)
    653829ea:	89 53 f8             	mov    %edx,-0x8(%rbx)
    653829ed:	48 83 fe 20          	cmp    $0x20,%rsi
    653829f1:	74 32                	je     65382a25 <__mingw_init_ehandler+0xe5>
    653829f3:	48 89 f1             	mov    %rsi,%rcx
    653829f6:	e8 75 06 00 00       	callq  65383070 <_FindPESectionExec>
    653829fb:	48 85 c0             	test   %rax,%rax
    653829fe:	75 c5                	jne    653829c5 <__mingw_init_ehandler+0x85>
    65382a00:	48 85 f6             	test   %rsi,%rsi
    65382a03:	0f 84 73 ff ff ff    	je     6538297c <__mingw_init_ehandler+0x3c>
    65382a09:	89 f2                	mov    %esi,%edx
    65382a0b:	0f 1f 44 00 00       	nopl   0x0(%rax,%rax,1)
    65382a10:	49 89 e8             	mov    %rbp,%r8
    65382a13:	48 8d 0d e6 5c 00 00 	lea    0x5ce6(%rip),%rcx        # 65388700 <emu_pdata>
    65382a1a:	ff 15 e4 77 00 00    	callq  *0x77e4(%rip)        # 6538a204 <__imp_RtlAddFunctionTable>
    65382a20:	e9 57 ff ff ff       	jmpq   6538297c <__mingw_init_ehandler+0x3c>
    65382a25:	ba 20 00 00 00       	mov    $0x20,%edx
    65382a2a:	eb e4                	jmp    65382a10 <__mingw_init_ehandler+0xd0>
    65382a2c:	0f 1f 40 00          	nopl   0x0(%rax)

0000000065382a30 <_gnu_exception_handler>:
    65382a30:	53                   	push   %rbx
    65382a31:	48 83 ec 20          	sub    $0x20,%rsp
    65382a35:	48 8b 11             	mov    (%rcx),%rdx
    65382a38:	48 89 cb             	mov    %rcx,%rbx
    65382a3b:	8b 02                	mov    (%rdx),%eax
    65382a3d:	89 c1                	mov    %eax,%ecx
    65382a3f:	81 e1 ff ff ff 20    	and    $0x20ffffff,%ecx
    65382a45:	81 f9 43 43 47 20    	cmp    $0x20474343,%ecx
    65382a4b:	0f 84 cf 00 00 00    	je     65382b20 <_gnu_exception_handler+0xf0>
    65382a51:	3d 91 00 00 c0       	cmp    $0xc0000091,%eax
    65382a56:	0f 87 84 00 00 00    	ja     65382ae0 <_gnu_exception_handler+0xb0>
    65382a5c:	3d 8d 00 00 c0       	cmp    $0xc000008d,%eax
    65382a61:	0f 83 94 00 00 00    	jae    65382afb <_gnu_exception_handler+0xcb>
    65382a67:	3d 08 00 00 c0       	cmp    $0xc0000008,%eax
    65382a6c:	74 32                	je     65382aa0 <_gnu_exception_handler+0x70>
    65382a6e:	77 40                	ja     65382ab0 <_gnu_exception_handler+0x80>
    65382a70:	3d 02 00 00 80       	cmp    $0x80000002,%eax
    65382a75:	74 29                	je     65382aa0 <_gnu_exception_handler+0x70>
    65382a77:	3d 05 00 00 c0       	cmp    $0xc0000005,%eax
    65382a7c:	75 44                	jne    65382ac2 <_gnu_exception_handler+0x92>
    65382a7e:	31 d2                	xor    %edx,%edx
    65382a80:	b9 0b 00 00 00       	mov    $0xb,%ecx
    65382a85:	e8 ae 08 00 00       	callq  65383338 <signal>
    65382a8a:	48 83 f8 01          	cmp    $0x1,%rax
    65382a8e:	0f 84 20 01 00 00    	je     65382bb4 <_gnu_exception_handler+0x184>
    65382a94:	48 85 c0             	test   %rax,%rax
    65382a97:	74 29                	je     65382ac2 <_gnu_exception_handler+0x92>
    65382a99:	b9 0b 00 00 00       	mov    $0xb,%ecx
    65382a9e:	ff d0                	callq  *%rax
    65382aa0:	b8 ff ff ff ff       	mov    $0xffffffff,%eax
    65382aa5:	48 83 c4 20          	add    $0x20,%rsp
    65382aa9:	5b                   	pop    %rbx
    65382aaa:	c3                   	retq   
    65382aab:	0f 1f 44 00 00       	nopl   0x0(%rax,%rax,1)
    65382ab0:	3d 1d 00 00 c0       	cmp    $0xc000001d,%eax
    65382ab5:	0f 84 8b 00 00 00    	je     65382b46 <_gnu_exception_handler+0x116>
    65382abb:	3d 8c 00 00 c0       	cmp    $0xc000008c,%eax
    65382ac0:	74 de                	je     65382aa0 <_gnu_exception_handler+0x70>
    65382ac2:	48 8b 05 17 5b 00 00 	mov    0x5b17(%rip),%rax        # 653885e0 <__mingw_oldexcpt_handler>
    65382ac9:	48 85 c0             	test   %rax,%rax
    65382acc:	74 d7                	je     65382aa5 <_gnu_exception_handler+0x75>
    65382ace:	48 89 d9             	mov    %rbx,%rcx
    65382ad1:	48 83 c4 20          	add    $0x20,%rsp
    65382ad5:	5b                   	pop    %rbx
    65382ad6:	48 ff e0             	rex.W jmpq *%rax
    65382ad9:	0f 1f 80 00 00 00 00 	nopl   0x0(%rax)
    65382ae0:	3d 94 00 00 c0       	cmp    $0xc0000094,%eax
    65382ae5:	0f 84 85 00 00 00    	je     65382b70 <_gnu_exception_handler+0x140>
    65382aeb:	77 43                	ja     65382b30 <_gnu_exception_handler+0x100>
    65382aed:	3d 92 00 00 c0       	cmp    $0xc0000092,%eax
    65382af2:	74 ac                	je     65382aa0 <_gnu_exception_handler+0x70>
    65382af4:	3d 93 00 00 c0       	cmp    $0xc0000093,%eax
    65382af9:	75 c7                	jne    65382ac2 <_gnu_exception_handler+0x92>
    65382afb:	31 d2                	xor    %edx,%edx
    65382afd:	b9 08 00 00 00       	mov    $0x8,%ecx
    65382b02:	e8 31 08 00 00       	callq  65383338 <signal>
    65382b07:	48 83 f8 01          	cmp    $0x1,%rax
    65382b0b:	0f 84 b7 00 00 00    	je     65382bc8 <_gnu_exception_handler+0x198>
    65382b11:	48 85 c0             	test   %rax,%rax
    65382b14:	74 ac                	je     65382ac2 <_gnu_exception_handler+0x92>
    65382b16:	b9 08 00 00 00       	mov    $0x8,%ecx
    65382b1b:	ff d0                	callq  *%rax
    65382b1d:	eb 81                	jmp    65382aa0 <_gnu_exception_handler+0x70>
    65382b1f:	90                   	nop
    65382b20:	f6 42 04 01          	testb  $0x1,0x4(%rdx)
    65382b24:	0f 85 27 ff ff ff    	jne    65382a51 <_gnu_exception_handler+0x21>
    65382b2a:	e9 71 ff ff ff       	jmpq   65382aa0 <_gnu_exception_handler+0x70>
    65382b2f:	90                   	nop
    65382b30:	3d 95 00 00 c0       	cmp    $0xc0000095,%eax
    65382b35:	0f 84 65 ff ff ff    	je     65382aa0 <_gnu_exception_handler+0x70>
    65382b3b:	3d 96 00 00 c0       	cmp    $0xc0000096,%eax
    65382b40:	0f 85 7c ff ff ff    	jne    65382ac2 <_gnu_exception_handler+0x92>
    65382b46:	31 d2                	xor    %edx,%edx
    65382b48:	b9 04 00 00 00       	mov    $0x4,%ecx
    65382b4d:	e8 e6 07 00 00       	callq  65383338 <signal>
    65382b52:	48 83 f8 01          	cmp    $0x1,%rax
    65382b56:	74 48                	je     65382ba0 <_gnu_exception_handler+0x170>
    65382b58:	48 85 c0             	test   %rax,%rax
    65382b5b:	0f 84 61 ff ff ff    	je     65382ac2 <_gnu_exception_handler+0x92>
    65382b61:	b9 04 00 00 00       	mov    $0x4,%ecx
    65382b66:	ff d0                	callq  *%rax
    65382b68:	e9 33 ff ff ff       	jmpq   65382aa0 <_gnu_exception_handler+0x70>
    65382b6d:	0f 1f 00             	nopl   (%rax)
    65382b70:	31 d2                	xor    %edx,%edx
    65382b72:	b9 08 00 00 00       	mov    $0x8,%ecx
    65382b77:	e8 bc 07 00 00       	callq  65383338 <signal>
    65382b7c:	48 83 f8 01          	cmp    $0x1,%rax
    65382b80:	75 8f                	jne    65382b11 <_gnu_exception_handler+0xe1>
    65382b82:	ba 01 00 00 00       	mov    $0x1,%edx
    65382b87:	b9 08 00 00 00       	mov    $0x8,%ecx
    65382b8c:	e8 a7 07 00 00       	callq  65383338 <signal>
    65382b91:	e9 0a ff ff ff       	jmpq   65382aa0 <_gnu_exception_handler+0x70>
    65382b96:	66 2e 0f 1f 84 00 00 	nopw   %cs:0x0(%rax,%rax,1)
    65382b9d:	00 00 00 
    65382ba0:	ba 01 00 00 00       	mov    $0x1,%edx
    65382ba5:	b9 04 00 00 00       	mov    $0x4,%ecx
    65382baa:	e8 89 07 00 00       	callq  65383338 <signal>
    65382baf:	e9 ec fe ff ff       	jmpq   65382aa0 <_gnu_exception_handler+0x70>
    65382bb4:	ba 01 00 00 00       	mov    $0x1,%edx
    65382bb9:	b9 0b 00 00 00       	mov    $0xb,%ecx
    65382bbe:	e8 75 07 00 00       	callq  65383338 <signal>
    65382bc3:	e9 d8 fe ff ff       	jmpq   65382aa0 <_gnu_exception_handler+0x70>
    65382bc8:	ba 01 00 00 00       	mov    $0x1,%edx
    65382bcd:	b9 08 00 00 00       	mov    $0x8,%ecx
    65382bd2:	e8 61 07 00 00       	callq  65383338 <signal>
    65382bd7:	e8 d4 06 00 00       	callq  653832b0 <_fpreset>
    65382bdc:	e9 bf fe ff ff       	jmpq   65382aa0 <_gnu_exception_handler+0x70>
    65382be1:	90                   	nop
    65382be2:	90                   	nop
    65382be3:	90                   	nop
    65382be4:	90                   	nop
    65382be5:	90                   	nop
    65382be6:	90                   	nop
    65382be7:	90                   	nop
    65382be8:	90                   	nop
    65382be9:	90                   	nop
    65382bea:	90                   	nop
    65382beb:	90                   	nop
    65382bec:	90                   	nop
    65382bed:	90                   	nop
    65382bee:	90                   	nop
    65382bef:	90                   	nop

0000000065382bf0 <__mingwthr_run_key_dtors.part.0>:
    65382bf0:	55                   	push   %rbp
    65382bf1:	57                   	push   %rdi
    65382bf2:	56                   	push   %rsi
    65382bf3:	53                   	push   %rbx
    65382bf4:	48 83 ec 28          	sub    $0x28,%rsp
    65382bf8:	48 8d 0d a1 5c 00 00 	lea    0x5ca1(%rip),%rcx        # 653888a0 <__mingwthr_cs>
    65382bff:	ff 15 9f 75 00 00    	callq  *0x759f(%rip)        # 6538a1a4 <__imp_EnterCriticalSection>
    65382c05:	48 8b 1d 74 5c 00 00 	mov    0x5c74(%rip),%rbx        # 65388880 <key_dtor_list>
    65382c0c:	48 85 db             	test   %rbx,%rbx
    65382c0f:	74 33                	je     65382c44 <__mingwthr_run_key_dtors.part.0+0x54>
    65382c11:	48 8b 2d 24 76 00 00 	mov    0x7624(%rip),%rbp        # 6538a23c <__imp_TlsGetValue>
    65382c18:	48 8b 3d a5 75 00 00 	mov    0x75a5(%rip),%rdi        # 6538a1c4 <__imp_GetLastError>
    65382c1f:	90                   	nop
    65382c20:	8b 0b                	mov    (%rbx),%ecx
    65382c22:	ff d5                	callq  *%rbp
    65382c24:	48 89 c6             	mov    %rax,%rsi
    65382c27:	ff d7                	callq  *%rdi
    65382c29:	85 c0                	test   %eax,%eax
    65382c2b:	75 0e                	jne    65382c3b <__mingwthr_run_key_dtors.part.0+0x4b>
    65382c2d:	48 85 f6             	test   %rsi,%rsi
    65382c30:	74 09                	je     65382c3b <__mingwthr_run_key_dtors.part.0+0x4b>
    65382c32:	48 8b 43 08          	mov    0x8(%rbx),%rax
    65382c36:	48 89 f1             	mov    %rsi,%rcx
    65382c39:	ff d0                	callq  *%rax
    65382c3b:	48 8b 5b 10          	mov    0x10(%rbx),%rbx
    65382c3f:	48 85 db             	test   %rbx,%rbx
    65382c42:	75 dc                	jne    65382c20 <__mingwthr_run_key_dtors.part.0+0x30>
    65382c44:	48 8d 0d 55 5c 00 00 	lea    0x5c55(%rip),%rcx        # 653888a0 <__mingwthr_cs>
    65382c4b:	48 83 c4 28          	add    $0x28,%rsp
    65382c4f:	5b                   	pop    %rbx
    65382c50:	5e                   	pop    %rsi
    65382c51:	5f                   	pop    %rdi
    65382c52:	5d                   	pop    %rbp
    65382c53:	48 ff 25 9a 75 00 00 	rex.W jmpq *0x759a(%rip)        # 6538a1f4 <__imp_LeaveCriticalSection>
    65382c5a:	66 0f 1f 44 00 00    	nopw   0x0(%rax,%rax,1)

0000000065382c60 <___w64_mingwthr_add_key_dtor>:
    65382c60:	57                   	push   %rdi
    65382c61:	56                   	push   %rsi
    65382c62:	53                   	push   %rbx
    65382c63:	48 83 ec 20          	sub    $0x20,%rsp
    65382c67:	8b 05 1b 5c 00 00    	mov    0x5c1b(%rip),%eax        # 65388888 <__mingwthr_cs_init>
    65382c6d:	89 cf                	mov    %ecx,%edi
    65382c6f:	48 89 d6             	mov    %rdx,%rsi
    65382c72:	85 c0                	test   %eax,%eax
    65382c74:	75 0a                	jne    65382c80 <___w64_mingwthr_add_key_dtor+0x20>
    65382c76:	48 83 c4 20          	add    $0x20,%rsp
    65382c7a:	5b                   	pop    %rbx
    65382c7b:	5e                   	pop    %rsi
    65382c7c:	5f                   	pop    %rdi
    65382c7d:	c3                   	retq   
    65382c7e:	66 90                	xchg   %ax,%ax
    65382c80:	ba 18 00 00 00       	mov    $0x18,%edx
    65382c85:	b9 01 00 00 00       	mov    $0x1,%ecx
    65382c8a:	e8 d1 06 00 00       	callq  65383360 <calloc>
    65382c8f:	48 85 c0             	test   %rax,%rax
    65382c92:	48 89 c3             	mov    %rax,%rbx
    65382c95:	74 3c                	je     65382cd3 <___w64_mingwthr_add_key_dtor+0x73>
    65382c97:	89 38                	mov    %edi,(%rax)
    65382c99:	48 89 70 08          	mov    %rsi,0x8(%rax)
    65382c9d:	48 8d 0d fc 5b 00 00 	lea    0x5bfc(%rip),%rcx        # 653888a0 <__mingwthr_cs>
    65382ca4:	ff 15 fa 74 00 00    	callq  *0x74fa(%rip)        # 6538a1a4 <__imp_EnterCriticalSection>
    65382caa:	48 8b 05 cf 5b 00 00 	mov    0x5bcf(%rip),%rax        # 65388880 <key_dtor_list>
    65382cb1:	48 8d 0d e8 5b 00 00 	lea    0x5be8(%rip),%rcx        # 653888a0 <__mingwthr_cs>
    65382cb8:	48 89 1d c1 5b 00 00 	mov    %rbx,0x5bc1(%rip)        # 65388880 <key_dtor_list>
    65382cbf:	48 89 43 10          	mov    %rax,0x10(%rbx)
    65382cc3:	ff 15 2b 75 00 00    	callq  *0x752b(%rip)        # 6538a1f4 <__imp_LeaveCriticalSection>
    65382cc9:	31 c0                	xor    %eax,%eax
    65382ccb:	48 83 c4 20          	add    $0x20,%rsp
    65382ccf:	5b                   	pop    %rbx
    65382cd0:	5e                   	pop    %rsi
    65382cd1:	5f                   	pop    %rdi
    65382cd2:	c3                   	retq   
    65382cd3:	b8 ff ff ff ff       	mov    $0xffffffff,%eax
    65382cd8:	eb 9c                	jmp    65382c76 <___w64_mingwthr_add_key_dtor+0x16>
    65382cda:	66 0f 1f 44 00 00    	nopw   0x0(%rax,%rax,1)

0000000065382ce0 <___w64_mingwthr_remove_key_dtor>:
    65382ce0:	53                   	push   %rbx
    65382ce1:	48 83 ec 20          	sub    $0x20,%rsp
    65382ce5:	8b 05 9d 5b 00 00    	mov    0x5b9d(%rip),%eax        # 65388888 <__mingwthr_cs_init>
    65382ceb:	89 cb                	mov    %ecx,%ebx
    65382ced:	85 c0                	test   %eax,%eax
    65382cef:	75 0f                	jne    65382d00 <___w64_mingwthr_remove_key_dtor+0x20>
    65382cf1:	31 c0                	xor    %eax,%eax
    65382cf3:	48 83 c4 20          	add    $0x20,%rsp
    65382cf7:	5b                   	pop    %rbx
    65382cf8:	c3                   	retq   
    65382cf9:	0f 1f 80 00 00 00 00 	nopl   0x0(%rax)
    65382d00:	48 8d 0d 99 5b 00 00 	lea    0x5b99(%rip),%rcx        # 653888a0 <__mingwthr_cs>
    65382d07:	ff 15 97 74 00 00    	callq  *0x7497(%rip)        # 6538a1a4 <__imp_EnterCriticalSection>
    65382d0d:	48 8b 05 6c 5b 00 00 	mov    0x5b6c(%rip),%rax        # 65388880 <key_dtor_list>
    65382d14:	48 85 c0             	test   %rax,%rax
    65382d17:	74 1a                	je     65382d33 <___w64_mingwthr_remove_key_dtor+0x53>
    65382d19:	8b 10                	mov    (%rax),%edx
    65382d1b:	39 d3                	cmp    %edx,%ebx
    65382d1d:	75 0b                	jne    65382d2a <___w64_mingwthr_remove_key_dtor+0x4a>
    65382d1f:	eb 4b                	jmp    65382d6c <___w64_mingwthr_remove_key_dtor+0x8c>
    65382d21:	8b 11                	mov    (%rcx),%edx
    65382d23:	39 da                	cmp    %ebx,%edx
    65382d25:	74 29                	je     65382d50 <___w64_mingwthr_remove_key_dtor+0x70>
    65382d27:	48 89 c8             	mov    %rcx,%rax
    65382d2a:	48 8b 48 10          	mov    0x10(%rax),%rcx
    65382d2e:	48 85 c9             	test   %rcx,%rcx
    65382d31:	75 ee                	jne    65382d21 <___w64_mingwthr_remove_key_dtor+0x41>
    65382d33:	48 8d 0d 66 5b 00 00 	lea    0x5b66(%rip),%rcx        # 653888a0 <__mingwthr_cs>
    65382d3a:	ff 15 b4 74 00 00    	callq  *0x74b4(%rip)        # 6538a1f4 <__imp_LeaveCriticalSection>
    65382d40:	31 c0                	xor    %eax,%eax
    65382d42:	48 83 c4 20          	add    $0x20,%rsp
    65382d46:	5b                   	pop    %rbx
    65382d47:	c3                   	retq   
    65382d48:	0f 1f 84 00 00 00 00 	nopl   0x0(%rax,%rax,1)
    65382d4f:	00 
    65382d50:	48 8b 51 10          	mov    0x10(%rcx),%rdx
    65382d54:	48 89 50 10          	mov    %rdx,0x10(%rax)
    65382d58:	e8 fb 05 00 00       	callq  65383358 <free>
    65382d5d:	48 8d 0d 3c 5b 00 00 	lea    0x5b3c(%rip),%rcx        # 653888a0 <__mingwthr_cs>
    65382d64:	ff 15 8a 74 00 00    	callq  *0x748a(%rip)        # 6538a1f4 <__imp_LeaveCriticalSection>
    65382d6a:	eb d4                	jmp    65382d40 <___w64_mingwthr_remove_key_dtor+0x60>
    65382d6c:	48 8b 50 10          	mov    0x10(%rax),%rdx
    65382d70:	48 89 c1             	mov    %rax,%rcx
    65382d73:	48 89 15 06 5b 00 00 	mov    %rdx,0x5b06(%rip)        # 65388880 <key_dtor_list>
    65382d7a:	eb dc                	jmp    65382d58 <___w64_mingwthr_remove_key_dtor+0x78>
    65382d7c:	0f 1f 40 00          	nopl   0x0(%rax)

0000000065382d80 <__mingw_TLScallback>:
    65382d80:	53                   	push   %rbx
    65382d81:	48 83 ec 20          	sub    $0x20,%rsp
    65382d85:	83 fa 01             	cmp    $0x1,%edx
    65382d88:	0f 84 82 00 00 00    	je     65382e10 <__mingw_TLScallback+0x90>
    65382d8e:	72 20                	jb     65382db0 <__mingw_TLScallback+0x30>
    65382d90:	83 fa 03             	cmp    $0x3,%edx
    65382d93:	75 0e                	jne    65382da3 <__mingw_TLScallback+0x23>
    65382d95:	8b 05 ed 5a 00 00    	mov    0x5aed(%rip),%eax        # 65388888 <__mingwthr_cs_init>
    65382d9b:	85 c0                	test   %eax,%eax
    65382d9d:	0f 85 9d 00 00 00    	jne    65382e40 <__mingw_TLScallback+0xc0>
    65382da3:	b8 01 00 00 00       	mov    $0x1,%eax
    65382da8:	48 83 c4 20          	add    $0x20,%rsp
    65382dac:	5b                   	pop    %rbx
    65382dad:	c3                   	retq   
    65382dae:	66 90                	xchg   %ax,%ax
    65382db0:	8b 05 d2 5a 00 00    	mov    0x5ad2(%rip),%eax        # 65388888 <__mingwthr_cs_init>
    65382db6:	85 c0                	test   %eax,%eax
    65382db8:	0f 85 92 00 00 00    	jne    65382e50 <__mingw_TLScallback+0xd0>
    65382dbe:	8b 05 c4 5a 00 00    	mov    0x5ac4(%rip),%eax        # 65388888 <__mingwthr_cs_init>
    65382dc4:	83 f8 01             	cmp    $0x1,%eax
    65382dc7:	75 da                	jne    65382da3 <__mingw_TLScallback+0x23>
    65382dc9:	48 8b 0d b0 5a 00 00 	mov    0x5ab0(%rip),%rcx        # 65388880 <key_dtor_list>
    65382dd0:	48 85 c9             	test   %rcx,%rcx
    65382dd3:	74 11                	je     65382de6 <__mingw_TLScallback+0x66>
    65382dd5:	48 8b 59 10          	mov    0x10(%rcx),%rbx
    65382dd9:	e8 7a 05 00 00       	callq  65383358 <free>
    65382dde:	48 85 db             	test   %rbx,%rbx
    65382de1:	48 89 d9             	mov    %rbx,%rcx
    65382de4:	75 ef                	jne    65382dd5 <__mingw_TLScallback+0x55>
    65382de6:	48 8d 0d b3 5a 00 00 	lea    0x5ab3(%rip),%rcx        # 653888a0 <__mingwthr_cs>
    65382ded:	48 c7 05 88 5a 00 00 	movq   $0x0,0x5a88(%rip)        # 65388880 <key_dtor_list>
    65382df4:	00 00 00 00 
    65382df8:	c7 05 86 5a 00 00 00 	movl   $0x0,0x5a86(%rip)        # 65388888 <__mingwthr_cs_init>
    65382dff:	00 00 00 
    65382e02:	ff 15 94 73 00 00    	callq  *0x7394(%rip)        # 6538a19c <__IAT_start__>
    65382e08:	eb 99                	jmp    65382da3 <__mingw_TLScallback+0x23>
    65382e0a:	66 0f 1f 44 00 00    	nopw   0x0(%rax,%rax,1)
    65382e10:	8b 05 72 5a 00 00    	mov    0x5a72(%rip),%eax        # 65388888 <__mingwthr_cs_init>
    65382e16:	85 c0                	test   %eax,%eax
    65382e18:	74 16                	je     65382e30 <__mingw_TLScallback+0xb0>
    65382e1a:	b8 01 00 00 00       	mov    $0x1,%eax
    65382e1f:	c7 05 5f 5a 00 00 01 	movl   $0x1,0x5a5f(%rip)        # 65388888 <__mingwthr_cs_init>
    65382e26:	00 00 00 
    65382e29:	48 83 c4 20          	add    $0x20,%rsp
    65382e2d:	5b                   	pop    %rbx
    65382e2e:	c3                   	retq   
    65382e2f:	90                   	nop
    65382e30:	48 8d 0d 69 5a 00 00 	lea    0x5a69(%rip),%rcx        # 653888a0 <__mingwthr_cs>
    65382e37:	ff 15 af 73 00 00    	callq  *0x73af(%rip)        # 6538a1ec <__imp_InitializeCriticalSection>
    65382e3d:	eb db                	jmp    65382e1a <__mingw_TLScallback+0x9a>
    65382e3f:	90                   	nop
    65382e40:	e8 ab fd ff ff       	callq  65382bf0 <__mingwthr_run_key_dtors.part.0>
    65382e45:	e9 59 ff ff ff       	jmpq   65382da3 <__mingw_TLScallback+0x23>
    65382e4a:	66 0f 1f 44 00 00    	nopw   0x0(%rax,%rax,1)
    65382e50:	e8 9b fd ff ff       	callq  65382bf0 <__mingwthr_run_key_dtors.part.0>
    65382e55:	e9 64 ff ff ff       	jmpq   65382dbe <__mingw_TLScallback+0x3e>
    65382e5a:	90                   	nop
    65382e5b:	90                   	nop
    65382e5c:	90                   	nop
    65382e5d:	90                   	nop
    65382e5e:	90                   	nop
    65382e5f:	90                   	nop

0000000065382e60 <_ValidateImageBase.part.0>:
    65382e60:	48 63 41 3c          	movslq 0x3c(%rcx),%rax
    65382e64:	48 01 c1             	add    %rax,%rcx
    65382e67:	31 c0                	xor    %eax,%eax
    65382e69:	81 39 50 45 00 00    	cmpl   $0x4550,(%rcx)
    65382e6f:	74 02                	je     65382e73 <_ValidateImageBase.part.0+0x13>
    65382e71:	f3 c3                	repz retq 
    65382e73:	31 c0                	xor    %eax,%eax
    65382e75:	66 81 79 18 0b 02    	cmpw   $0x20b,0x18(%rcx)
    65382e7b:	0f 94 c0             	sete   %al
    65382e7e:	c3                   	retq   
    65382e7f:	90                   	nop

0000000065382e80 <_ValidateImageBase>:
    65382e80:	66 81 39 4d 5a       	cmpw   $0x5a4d,(%rcx)
    65382e85:	74 09                	je     65382e90 <_ValidateImageBase+0x10>
    65382e87:	31 c0                	xor    %eax,%eax
    65382e89:	c3                   	retq   
    65382e8a:	66 0f 1f 44 00 00    	nopw   0x0(%rax,%rax,1)
    65382e90:	eb ce                	jmp    65382e60 <_ValidateImageBase.part.0>
    65382e92:	0f 1f 40 00          	nopl   0x0(%rax)
    65382e96:	66 2e 0f 1f 84 00 00 	nopw   %cs:0x0(%rax,%rax,1)
    65382e9d:	00 00 00 

0000000065382ea0 <_FindPESection>:
    65382ea0:	48 63 41 3c          	movslq 0x3c(%rcx),%rax
    65382ea4:	48 01 c1             	add    %rax,%rcx
    65382ea7:	0f b7 41 14          	movzwl 0x14(%rcx),%eax
    65382eab:	48 8d 44 01 18       	lea    0x18(%rcx,%rax,1),%rax
    65382eb0:	0f b7 49 06          	movzwl 0x6(%rcx),%ecx
    65382eb4:	85 c9                	test   %ecx,%ecx
    65382eb6:	74 29                	je     65382ee1 <_FindPESection+0x41>
    65382eb8:	83 e9 01             	sub    $0x1,%ecx
    65382ebb:	48 8d 0c 89          	lea    (%rcx,%rcx,4),%rcx
    65382ebf:	4c 8d 4c c8 28       	lea    0x28(%rax,%rcx,8),%r9
    65382ec4:	44 8b 40 0c          	mov    0xc(%rax),%r8d
    65382ec8:	49 39 d0             	cmp    %rdx,%r8
    65382ecb:	4c 89 c1             	mov    %r8,%rcx
    65382ece:	77 08                	ja     65382ed8 <_FindPESection+0x38>
    65382ed0:	03 48 08             	add    0x8(%rax),%ecx
    65382ed3:	48 39 ca             	cmp    %rcx,%rdx
    65382ed6:	72 0b                	jb     65382ee3 <_FindPESection+0x43>
    65382ed8:	48 83 c0 28          	add    $0x28,%rax
    65382edc:	4c 39 c8             	cmp    %r9,%rax
    65382edf:	75 e3                	jne    65382ec4 <_FindPESection+0x24>
    65382ee1:	31 c0                	xor    %eax,%eax
    65382ee3:	f3 c3                	repz retq 
    65382ee5:	90                   	nop
    65382ee6:	66 2e 0f 1f 84 00 00 	nopw   %cs:0x0(%rax,%rax,1)
    65382eed:	00 00 00 

0000000065382ef0 <_FindPESectionByName>:
    65382ef0:	57                   	push   %rdi
    65382ef1:	56                   	push   %rsi
    65382ef2:	53                   	push   %rbx
    65382ef3:	48 83 ec 20          	sub    $0x20,%rsp
    65382ef7:	48 89 ce             	mov    %rcx,%rsi
    65382efa:	e8 31 04 00 00       	callq  65383330 <strlen>
    65382eff:	48 83 f8 08          	cmp    $0x8,%rax
    65382f03:	77 1c                	ja     65382f21 <_FindPESectionByName+0x31>
    65382f05:	48 8b 15 d4 22 00 00 	mov    0x22d4(%rip),%rdx        # 653851e0 <.refptr.__image_base__>
    65382f0c:	45 31 c0             	xor    %r8d,%r8d
    65382f0f:	66 81 3a 4d 5a       	cmpw   $0x5a4d,(%rdx)
    65382f14:	74 1a                	je     65382f30 <_FindPESectionByName+0x40>
    65382f16:	4c 89 c0             	mov    %r8,%rax
    65382f19:	48 83 c4 20          	add    $0x20,%rsp
    65382f1d:	5b                   	pop    %rbx
    65382f1e:	5e                   	pop    %rsi
    65382f1f:	5f                   	pop    %rdi
    65382f20:	c3                   	retq   
    65382f21:	45 31 c0             	xor    %r8d,%r8d
    65382f24:	4c 89 c0             	mov    %r8,%rax
    65382f27:	48 83 c4 20          	add    $0x20,%rsp
    65382f2b:	5b                   	pop    %rbx
    65382f2c:	5e                   	pop    %rsi
    65382f2d:	5f                   	pop    %rdi
    65382f2e:	c3                   	retq   
    65382f2f:	90                   	nop
    65382f30:	48 89 d1             	mov    %rdx,%rcx
    65382f33:	e8 28 ff ff ff       	callq  65382e60 <_ValidateImageBase.part.0>
    65382f38:	85 c0                	test   %eax,%eax
    65382f3a:	74 da                	je     65382f16 <_FindPESectionByName+0x26>
    65382f3c:	48 63 42 3c          	movslq 0x3c(%rdx),%rax
    65382f40:	48 01 c2             	add    %rax,%rdx
    65382f43:	0f b7 42 14          	movzwl 0x14(%rdx),%eax
    65382f47:	48 8d 5c 02 18       	lea    0x18(%rdx,%rax,1),%rbx
    65382f4c:	0f b7 42 06          	movzwl 0x6(%rdx),%eax
    65382f50:	85 c0                	test   %eax,%eax
    65382f52:	74 c2                	je     65382f16 <_FindPESectionByName+0x26>
    65382f54:	83 e8 01             	sub    $0x1,%eax
    65382f57:	48 8d 04 80          	lea    (%rax,%rax,4),%rax
    65382f5b:	48 8d 7c c3 28       	lea    0x28(%rbx,%rax,8),%rdi
    65382f60:	eb 09                	jmp    65382f6b <_FindPESectionByName+0x7b>
    65382f62:	48 83 c3 28          	add    $0x28,%rbx
    65382f66:	48 39 fb             	cmp    %rdi,%rbx
    65382f69:	74 b6                	je     65382f21 <_FindPESectionByName+0x31>
    65382f6b:	41 b8 08 00 00 00    	mov    $0x8,%r8d
    65382f71:	48 89 f2             	mov    %rsi,%rdx
    65382f74:	48 89 d9             	mov    %rbx,%rcx
    65382f77:	e8 ac 03 00 00       	callq  65383328 <strncmp>
    65382f7c:	85 c0                	test   %eax,%eax
    65382f7e:	75 e2                	jne    65382f62 <_FindPESectionByName+0x72>
    65382f80:	49 89 d8             	mov    %rbx,%r8
    65382f83:	4c 89 c0             	mov    %r8,%rax
    65382f86:	48 83 c4 20          	add    $0x20,%rsp
    65382f8a:	5b                   	pop    %rbx
    65382f8b:	5e                   	pop    %rsi
    65382f8c:	5f                   	pop    %rdi
    65382f8d:	c3                   	retq   
    65382f8e:	66 90                	xchg   %ax,%ax

0000000065382f90 <__mingw_GetSectionForAddress>:
    65382f90:	48 83 ec 28          	sub    $0x28,%rsp
    65382f94:	4c 8b 05 45 22 00 00 	mov    0x2245(%rip),%r8        # 653851e0 <.refptr.__image_base__>
    65382f9b:	45 31 c9             	xor    %r9d,%r9d
    65382f9e:	48 89 ca             	mov    %rcx,%rdx
    65382fa1:	66 41 81 38 4d 5a    	cmpw   $0x5a4d,(%r8)
    65382fa7:	74 08                	je     65382fb1 <__mingw_GetSectionForAddress+0x21>
    65382fa9:	4c 89 c8             	mov    %r9,%rax
    65382fac:	48 83 c4 28          	add    $0x28,%rsp
    65382fb0:	c3                   	retq   
    65382fb1:	4c 89 c1             	mov    %r8,%rcx
    65382fb4:	e8 a7 fe ff ff       	callq  65382e60 <_ValidateImageBase.part.0>
    65382fb9:	85 c0                	test   %eax,%eax
    65382fbb:	74 ec                	je     65382fa9 <__mingw_GetSectionForAddress+0x19>
    65382fbd:	49 63 40 3c          	movslq 0x3c(%r8),%rax
    65382fc1:	48 89 d1             	mov    %rdx,%rcx
    65382fc4:	4c 29 c1             	sub    %r8,%rcx
    65382fc7:	49 01 c0             	add    %rax,%r8
    65382fca:	41 0f b7 50 06       	movzwl 0x6(%r8),%edx
    65382fcf:	41 0f b7 40 14       	movzwl 0x14(%r8),%eax
    65382fd4:	85 d2                	test   %edx,%edx
    65382fd6:	49 8d 44 00 18       	lea    0x18(%r8,%rax,1),%rax
    65382fdb:	74 cc                	je     65382fa9 <__mingw_GetSectionForAddress+0x19>
    65382fdd:	83 ea 01             	sub    $0x1,%edx
    65382fe0:	48 8d 14 92          	lea    (%rdx,%rdx,4),%rdx
    65382fe4:	4c 8d 4c d0 28       	lea    0x28(%rax,%rdx,8),%r9
    65382fe9:	0f 1f 80 00 00 00 00 	nopl   0x0(%rax)
    65382ff0:	44 8b 40 0c          	mov    0xc(%rax),%r8d
    65382ff4:	4c 39 c1             	cmp    %r8,%rcx
    65382ff7:	4c 89 c2             	mov    %r8,%rdx
    65382ffa:	72 08                	jb     65383004 <__mingw_GetSectionForAddress+0x74>
    65382ffc:	03 50 08             	add    0x8(%rax),%edx
    65382fff:	48 39 d1             	cmp    %rdx,%rcx
    65383002:	72 1c                	jb     65383020 <__mingw_GetSectionForAddress+0x90>
    65383004:	48 83 c0 28          	add    $0x28,%rax
    65383008:	4c 39 c8             	cmp    %r9,%rax
    6538300b:	75 e3                	jne    65382ff0 <__mingw_GetSectionForAddress+0x60>
    6538300d:	45 31 c9             	xor    %r9d,%r9d
    65383010:	4c 89 c8             	mov    %r9,%rax
    65383013:	48 83 c4 28          	add    $0x28,%rsp
    65383017:	c3                   	retq   
    65383018:	0f 1f 84 00 00 00 00 	nopl   0x0(%rax,%rax,1)
    6538301f:	00 
    65383020:	49 89 c1             	mov    %rax,%r9
    65383023:	4c 89 c8             	mov    %r9,%rax
    65383026:	48 83 c4 28          	add    $0x28,%rsp
    6538302a:	c3                   	retq   
    6538302b:	0f 1f 44 00 00       	nopl   0x0(%rax,%rax,1)

0000000065383030 <__mingw_GetSectionCount>:
    65383030:	48 83 ec 28          	sub    $0x28,%rsp
    65383034:	48 8b 15 a5 21 00 00 	mov    0x21a5(%rip),%rdx        # 653851e0 <.refptr.__image_base__>
    6538303b:	31 c0                	xor    %eax,%eax
    6538303d:	66 81 3a 4d 5a       	cmpw   $0x5a4d,(%rdx)
    65383042:	74 0c                	je     65383050 <__mingw_GetSectionCount+0x20>
    65383044:	48 83 c4 28          	add    $0x28,%rsp
    65383048:	c3                   	retq   
    65383049:	0f 1f 80 00 00 00 00 	nopl   0x0(%rax)
    65383050:	48 89 d1             	mov    %rdx,%rcx
    65383053:	e8 08 fe ff ff       	callq  65382e60 <_ValidateImageBase.part.0>
    65383058:	85 c0                	test   %eax,%eax
    6538305a:	74 e8                	je     65383044 <__mingw_GetSectionCount+0x14>
    6538305c:	48 63 42 3c          	movslq 0x3c(%rdx),%rax
    65383060:	0f b7 44 10 06       	movzwl 0x6(%rax,%rdx,1),%eax
    65383065:	48 83 c4 28          	add    $0x28,%rsp
    65383069:	c3                   	retq   
    6538306a:	66 0f 1f 44 00 00    	nopw   0x0(%rax,%rax,1)

0000000065383070 <_FindPESectionExec>:
    65383070:	48 83 ec 28          	sub    $0x28,%rsp
    65383074:	4c 8b 05 65 21 00 00 	mov    0x2165(%rip),%r8        # 653851e0 <.refptr.__image_base__>
    6538307b:	45 31 c9             	xor    %r9d,%r9d
    6538307e:	48 89 ca             	mov    %rcx,%rdx
    65383081:	66 41 81 38 4d 5a    	cmpw   $0x5a4d,(%r8)
    65383087:	74 08                	je     65383091 <_FindPESectionExec+0x21>
    65383089:	4c 89 c8             	mov    %r9,%rax
    6538308c:	48 83 c4 28          	add    $0x28,%rsp
    65383090:	c3                   	retq   
    65383091:	4c 89 c1             	mov    %r8,%rcx
    65383094:	e8 c7 fd ff ff       	callq  65382e60 <_ValidateImageBase.part.0>
    65383099:	85 c0                	test   %eax,%eax
    6538309b:	74 ec                	je     65383089 <_FindPESectionExec+0x19>
    6538309d:	49 63 40 3c          	movslq 0x3c(%r8),%rax
    653830a1:	49 01 c0             	add    %rax,%r8
    653830a4:	41 0f b7 48 06       	movzwl 0x6(%r8),%ecx
    653830a9:	41 0f b7 40 14       	movzwl 0x14(%r8),%eax
    653830ae:	85 c9                	test   %ecx,%ecx
    653830b0:	49 8d 44 00 18       	lea    0x18(%r8,%rax,1),%rax
    653830b5:	74 d2                	je     65383089 <_FindPESectionExec+0x19>
    653830b7:	83 e9 01             	sub    $0x1,%ecx
    653830ba:	48 8d 0c 89          	lea    (%rcx,%rcx,4),%rcx
    653830be:	48 8d 4c c8 28       	lea    0x28(%rax,%rcx,8),%rcx
    653830c3:	f6 40 27 20          	testb  $0x20,0x27(%rax)
    653830c7:	74 09                	je     653830d2 <_FindPESectionExec+0x62>
    653830c9:	48 85 d2             	test   %rdx,%rdx
    653830cc:	74 22                	je     653830f0 <_FindPESectionExec+0x80>
    653830ce:	48 83 ea 01          	sub    $0x1,%rdx
    653830d2:	48 83 c0 28          	add    $0x28,%rax
    653830d6:	48 39 c8             	cmp    %rcx,%rax
    653830d9:	75 e8                	jne    653830c3 <_FindPESectionExec+0x53>
    653830db:	45 31 c9             	xor    %r9d,%r9d
    653830de:	4c 89 c8             	mov    %r9,%rax
    653830e1:	48 83 c4 28          	add    $0x28,%rsp
    653830e5:	c3                   	retq   
    653830e6:	66 2e 0f 1f 84 00 00 	nopw   %cs:0x0(%rax,%rax,1)
    653830ed:	00 00 00 
    653830f0:	49 89 c1             	mov    %rax,%r9
    653830f3:	4c 89 c8             	mov    %r9,%rax
    653830f6:	48 83 c4 28          	add    $0x28,%rsp
    653830fa:	c3                   	retq   
    653830fb:	0f 1f 44 00 00       	nopl   0x0(%rax,%rax,1)

0000000065383100 <_GetPEImageBase>:
    65383100:	48 83 ec 28          	sub    $0x28,%rsp
    65383104:	4c 8b 05 d5 20 00 00 	mov    0x20d5(%rip),%r8        # 653851e0 <.refptr.__image_base__>
    6538310b:	31 d2                	xor    %edx,%edx
    6538310d:	66 41 81 38 4d 5a    	cmpw   $0x5a4d,(%r8)
    65383113:	74 0b                	je     65383120 <_GetPEImageBase+0x20>
    65383115:	48 89 d0             	mov    %rdx,%rax
    65383118:	48 83 c4 28          	add    $0x28,%rsp
    6538311c:	c3                   	retq   
    6538311d:	0f 1f 00             	nopl   (%rax)
    65383120:	4c 89 c1             	mov    %r8,%rcx
    65383123:	e8 38 fd ff ff       	callq  65382e60 <_ValidateImageBase.part.0>
    65383128:	85 c0                	test   %eax,%eax
    6538312a:	49 0f 45 d0          	cmovne %r8,%rdx
    6538312e:	48 89 d0             	mov    %rdx,%rax
    65383131:	48 83 c4 28          	add    $0x28,%rsp
    65383135:	c3                   	retq   
    65383136:	66 2e 0f 1f 84 00 00 	nopw   %cs:0x0(%rax,%rax,1)
    6538313d:	00 00 00 

0000000065383140 <_IsNonwritableInCurrentImage>:
    65383140:	48 83 ec 28          	sub    $0x28,%rsp
    65383144:	4c 8b 05 95 20 00 00 	mov    0x2095(%rip),%r8        # 653851e0 <.refptr.__image_base__>
    6538314b:	31 c0                	xor    %eax,%eax
    6538314d:	48 89 ca             	mov    %rcx,%rdx
    65383150:	66 41 81 38 4d 5a    	cmpw   $0x5a4d,(%r8)
    65383156:	74 08                	je     65383160 <_IsNonwritableInCurrentImage+0x20>
    65383158:	48 83 c4 28          	add    $0x28,%rsp
    6538315c:	c3                   	retq   
    6538315d:	0f 1f 00             	nopl   (%rax)
    65383160:	4c 89 c1             	mov    %r8,%rcx
    65383163:	e8 f8 fc ff ff       	callq  65382e60 <_ValidateImageBase.part.0>
    65383168:	85 c0                	test   %eax,%eax
    6538316a:	74 ec                	je     65383158 <_IsNonwritableInCurrentImage+0x18>
    6538316c:	49 63 40 3c          	movslq 0x3c(%r8),%rax
    65383170:	48 89 d1             	mov    %rdx,%rcx
    65383173:	4c 29 c1             	sub    %r8,%rcx
    65383176:	49 01 c0             	add    %rax,%r8
    65383179:	41 0f b7 50 06       	movzwl 0x6(%r8),%edx
    6538317e:	41 0f b7 40 14       	movzwl 0x14(%r8),%eax
    65383183:	85 d2                	test   %edx,%edx
    65383185:	49 8d 44 00 18       	lea    0x18(%r8,%rax,1),%rax
    6538318a:	74 31                	je     653831bd <_IsNonwritableInCurrentImage+0x7d>
    6538318c:	83 ea 01             	sub    $0x1,%edx
    6538318f:	48 8d 14 92          	lea    (%rdx,%rdx,4),%rdx
    65383193:	4c 8d 4c d0 28       	lea    0x28(%rax,%rdx,8),%r9
    65383198:	0f 1f 84 00 00 00 00 	nopl   0x0(%rax,%rax,1)
    6538319f:	00 
    653831a0:	44 8b 40 0c          	mov    0xc(%rax),%r8d
    653831a4:	4c 39 c1             	cmp    %r8,%rcx
    653831a7:	4c 89 c2             	mov    %r8,%rdx
    653831aa:	72 08                	jb     653831b4 <_IsNonwritableInCurrentImage+0x74>
    653831ac:	03 50 08             	add    0x8(%rax),%edx
    653831af:	48 39 d1             	cmp    %rdx,%rcx
    653831b2:	72 10                	jb     653831c4 <_IsNonwritableInCurrentImage+0x84>
    653831b4:	48 83 c0 28          	add    $0x28,%rax
    653831b8:	4c 39 c8             	cmp    %r9,%rax
    653831bb:	75 e3                	jne    653831a0 <_IsNonwritableInCurrentImage+0x60>
    653831bd:	31 c0                	xor    %eax,%eax
    653831bf:	48 83 c4 28          	add    $0x28,%rsp
    653831c3:	c3                   	retq   
    653831c4:	8b 40 24             	mov    0x24(%rax),%eax
    653831c7:	f7 d0                	not    %eax
    653831c9:	c1 e8 1f             	shr    $0x1f,%eax
    653831cc:	48 83 c4 28          	add    $0x28,%rsp
    653831d0:	c3                   	retq   
    653831d1:	0f 1f 44 00 00       	nopl   0x0(%rax,%rax,1)
    653831d6:	66 2e 0f 1f 84 00 00 	nopw   %cs:0x0(%rax,%rax,1)
    653831dd:	00 00 00 

00000000653831e0 <__mingw_enum_import_library_names>:
    653831e0:	48 83 ec 28          	sub    $0x28,%rsp
    653831e4:	4c 8b 1d f5 1f 00 00 	mov    0x1ff5(%rip),%r11        # 653851e0 <.refptr.__image_base__>
    653831eb:	45 31 c9             	xor    %r9d,%r9d
    653831ee:	41 89 c8             	mov    %ecx,%r8d
    653831f1:	66 41 81 3b 4d 5a    	cmpw   $0x5a4d,(%r11)
    653831f7:	74 08                	je     65383201 <__mingw_enum_import_library_names+0x21>
    653831f9:	4c 89 c8             	mov    %r9,%rax
    653831fc:	48 83 c4 28          	add    $0x28,%rsp
    65383200:	c3                   	retq   
    65383201:	4c 89 d9             	mov    %r11,%rcx
    65383204:	e8 57 fc ff ff       	callq  65382e60 <_ValidateImageBase.part.0>
    65383209:	85 c0                	test   %eax,%eax
    6538320b:	74 ec                	je     653831f9 <__mingw_enum_import_library_names+0x19>
    6538320d:	49 63 4b 3c          	movslq 0x3c(%r11),%rcx
    65383211:	4c 01 d9             	add    %r11,%rcx
    65383214:	8b 81 90 00 00 00    	mov    0x90(%rcx),%eax
    6538321a:	85 c0                	test   %eax,%eax
    6538321c:	74 db                	je     653831f9 <__mingw_enum_import_library_names+0x19>
    6538321e:	0f b7 51 14          	movzwl 0x14(%rcx),%edx
    65383222:	48 8d 54 11 18       	lea    0x18(%rcx,%rdx,1),%rdx
    65383227:	0f b7 49 06          	movzwl 0x6(%rcx),%ecx
    6538322b:	85 c9                	test   %ecx,%ecx
    6538322d:	74 ca                	je     653831f9 <__mingw_enum_import_library_names+0x19>
    6538322f:	83 e9 01             	sub    $0x1,%ecx
    65383232:	48 8d 0c 89          	lea    (%rcx,%rcx,4),%rcx
    65383236:	4c 8d 54 ca 28       	lea    0x28(%rdx,%rcx,8),%r10
    6538323b:	0f 1f 44 00 00       	nopl   0x0(%rax,%rax,1)
    65383240:	44 8b 4a 0c          	mov    0xc(%rdx),%r9d
    65383244:	4c 39 c8             	cmp    %r9,%rax
    65383247:	4c 89 c9             	mov    %r9,%rcx
    6538324a:	72 08                	jb     65383254 <__mingw_enum_import_library_names+0x74>
    6538324c:	03 4a 08             	add    0x8(%rdx),%ecx
    6538324f:	48 39 c8             	cmp    %rcx,%rax
    65383252:	72 1c                	jb     65383270 <__mingw_enum_import_library_names+0x90>
    65383254:	48 83 c2 28          	add    $0x28,%rdx
    65383258:	4c 39 d2             	cmp    %r10,%rdx
    6538325b:	75 e3                	jne    65383240 <__mingw_enum_import_library_names+0x60>
    6538325d:	45 31 c9             	xor    %r9d,%r9d
    65383260:	4c 89 c8             	mov    %r9,%rax
    65383263:	48 83 c4 28          	add    $0x28,%rsp
    65383267:	c3                   	retq   
    65383268:	0f 1f 84 00 00 00 00 	nopl   0x0(%rax,%rax,1)
    6538326f:	00 
    65383270:	4c 01 d8             	add    %r11,%rax
    65383273:	75 13                	jne    65383288 <__mingw_enum_import_library_names+0xa8>
    65383275:	eb e6                	jmp    6538325d <__mingw_enum_import_library_names+0x7d>
    65383277:	66 0f 1f 84 00 00 00 	nopw   0x0(%rax,%rax,1)
    6538327e:	00 00 
    65383280:	41 83 e8 01          	sub    $0x1,%r8d
    65383284:	48 83 c0 14          	add    $0x14,%rax
    65383288:	8b 48 04             	mov    0x4(%rax),%ecx
    6538328b:	85 c9                	test   %ecx,%ecx
    6538328d:	75 07                	jne    65383296 <__mingw_enum_import_library_names+0xb6>
    6538328f:	8b 50 0c             	mov    0xc(%rax),%edx
    65383292:	85 d2                	test   %edx,%edx
    65383294:	74 c7                	je     6538325d <__mingw_enum_import_library_names+0x7d>
    65383296:	45 85 c0             	test   %r8d,%r8d
    65383299:	7f e5                	jg     65383280 <__mingw_enum_import_library_names+0xa0>
    6538329b:	44 8b 48 0c          	mov    0xc(%rax),%r9d
    6538329f:	4d 01 d9             	add    %r11,%r9
    653832a2:	4c 89 c8             	mov    %r9,%rax
    653832a5:	48 83 c4 28          	add    $0x28,%rsp
    653832a9:	c3                   	retq   
    653832aa:	90                   	nop
    653832ab:	90                   	nop
    653832ac:	90                   	nop
    653832ad:	90                   	nop
    653832ae:	90                   	nop
    653832af:	90                   	nop

00000000653832b0 <_fpreset>:
    653832b0:	db e3                	fninit 
    653832b2:	c3                   	retq   
    653832b3:	90                   	nop
    653832b4:	90                   	nop
    653832b5:	90                   	nop
    653832b6:	90                   	nop
    653832b7:	90                   	nop
    653832b8:	90                   	nop
    653832b9:	90                   	nop
    653832ba:	90                   	nop
    653832bb:	90                   	nop
    653832bc:	90                   	nop
    653832bd:	90                   	nop
    653832be:	90                   	nop
    653832bf:	90                   	nop

00000000653832c0 <___chkstk_ms>:
    653832c0:	51                   	push   %rcx
    653832c1:	50                   	push   %rax
    653832c2:	48 3d 00 10 00 00    	cmp    $0x1000,%rax
    653832c8:	48 8d 4c 24 18       	lea    0x18(%rsp),%rcx
    653832cd:	72 19                	jb     653832e8 <___chkstk_ms+0x28>
    653832cf:	48 81 e9 00 10 00 00 	sub    $0x1000,%rcx
    653832d6:	48 83 09 00          	orq    $0x0,(%rcx)
    653832da:	48 2d 00 10 00 00    	sub    $0x1000,%rax
    653832e0:	48 3d 00 10 00 00    	cmp    $0x1000,%rax
    653832e6:	77 e7                	ja     653832cf <___chkstk_ms+0xf>
    653832e8:	48 29 c1             	sub    %rax,%rcx
    653832eb:	48 83 09 00          	orq    $0x0,(%rcx)
    653832ef:	58                   	pop    %rax
    653832f0:	59                   	pop    %rcx
    653832f1:	c3                   	retq   
    653832f2:	90                   	nop
    653832f3:	90                   	nop
    653832f4:	90                   	nop
    653832f5:	90                   	nop
    653832f6:	90                   	nop
    653832f7:	90                   	nop
    653832f8:	90                   	nop
    653832f9:	90                   	nop
    653832fa:	90                   	nop
    653832fb:	90                   	nop
    653832fc:	90                   	nop
    653832fd:	90                   	nop
    653832fe:	90                   	nop
    653832ff:	90                   	nop

0000000065383300 <DllEntryPoint>:
    65383300:	b8 01 00 00 00       	mov    $0x1,%eax
    65383305:	c3                   	retq   
    65383306:	90                   	nop
    65383307:	90                   	nop
    65383308:	90                   	nop
    65383309:	90                   	nop
    6538330a:	90                   	nop
    6538330b:	90                   	nop
    6538330c:	90                   	nop
    6538330d:	90                   	nop
    6538330e:	90                   	nop
    6538330f:	90                   	nop

0000000065383310 <DllMain>:
    65383310:	b8 01 00 00 00       	mov    $0x1,%eax
    65383315:	c3                   	retq   
    65383316:	90                   	nop
    65383317:	90                   	nop
    65383318:	90                   	nop
    65383319:	90                   	nop
    6538331a:	90                   	nop
    6538331b:	90                   	nop
    6538331c:	90                   	nop
    6538331d:	90                   	nop
    6538331e:	90                   	nop
    6538331f:	90                   	nop

0000000065383320 <vfprintf>:
    65383320:	ff 25 c6 6f 00 00    	jmpq   *0x6fc6(%rip)        # 6538a2ec <__imp_vfprintf>
    65383326:	90                   	nop
    65383327:	90                   	nop

0000000065383328 <strncmp>:
    65383328:	ff 25 b6 6f 00 00    	jmpq   *0x6fb6(%rip)        # 6538a2e4 <__imp_strncmp>
    6538332e:	90                   	nop
    6538332f:	90                   	nop

0000000065383330 <strlen>:
    65383330:	ff 25 a6 6f 00 00    	jmpq   *0x6fa6(%rip)        # 6538a2dc <__imp_strlen>
    65383336:	90                   	nop
    65383337:	90                   	nop

0000000065383338 <signal>:
    65383338:	ff 25 96 6f 00 00    	jmpq   *0x6f96(%rip)        # 6538a2d4 <__imp_signal>
    6538333e:	90                   	nop
    6538333f:	90                   	nop

0000000065383340 <memcpy>:
    65383340:	ff 25 7e 6f 00 00    	jmpq   *0x6f7e(%rip)        # 6538a2c4 <__imp_memcpy>
    65383346:	90                   	nop
    65383347:	90                   	nop

0000000065383348 <malloc>:
    65383348:	ff 25 6e 6f 00 00    	jmpq   *0x6f6e(%rip)        # 6538a2bc <__imp_malloc>
    6538334e:	90                   	nop
    6538334f:	90                   	nop

0000000065383350 <fwrite>:
    65383350:	ff 25 5e 6f 00 00    	jmpq   *0x6f5e(%rip)        # 6538a2b4 <__imp_fwrite>
    65383356:	90                   	nop
    65383357:	90                   	nop

0000000065383358 <free>:
    65383358:	ff 25 4e 6f 00 00    	jmpq   *0x6f4e(%rip)        # 6538a2ac <__imp_free>
    6538335e:	90                   	nop
    6538335f:	90                   	nop

0000000065383360 <calloc>:
    65383360:	ff 25 3e 6f 00 00    	jmpq   *0x6f3e(%rip)        # 6538a2a4 <__imp_calloc>
    65383366:	90                   	nop
    65383367:	90                   	nop

0000000065383368 <abort>:
    65383368:	ff 25 2e 6f 00 00    	jmpq   *0x6f2e(%rip)        # 6538a29c <__imp_abort>
    6538336e:	90                   	nop
    6538336f:	90                   	nop

0000000065383370 <_unlock>:
    65383370:	ff 25 1e 6f 00 00    	jmpq   *0x6f1e(%rip)        # 6538a294 <__imp__unlock>
    65383376:	90                   	nop
    65383377:	90                   	nop

0000000065383378 <_onexit>:
    65383378:	ff 25 0e 6f 00 00    	jmpq   *0x6f0e(%rip)        # 6538a28c <__imp__onexit>
    6538337e:	90                   	nop
    6538337f:	90                   	nop

0000000065383380 <_lock>:
    65383380:	ff 25 fe 6e 00 00    	jmpq   *0x6efe(%rip)        # 6538a284 <__imp__lock>
    65383386:	90                   	nop
    65383387:	90                   	nop

0000000065383388 <_initterm>:
    65383388:	ff 25 ee 6e 00 00    	jmpq   *0x6eee(%rip)        # 6538a27c <__imp__initterm>
    6538338e:	90                   	nop
    6538338f:	90                   	nop

0000000065383390 <_amsg_exit>:
    65383390:	ff 25 de 6e 00 00    	jmpq   *0x6ede(%rip)        # 6538a274 <__imp__amsg_exit>
    65383396:	90                   	nop
    65383397:	90                   	nop

0000000065383398 <__iob_func>:
    65383398:	ff 25 ce 6e 00 00    	jmpq   *0x6ece(%rip)        # 6538a26c <__imp___iob_func>
    6538339e:	90                   	nop
    6538339f:	90                   	nop

00000000653833a0 <__dllonexit>:
    653833a0:	ff 25 be 6e 00 00    	jmpq   *0x6ebe(%rip)        # 6538a264 <__imp___dllonexit>
    653833a6:	90                   	nop
    653833a7:	90                   	nop
    653833a8:	0f 1f 84 00 00 00 00 	nopl   0x0(%rax,%rax,1)
    653833af:	00 

00000000653833b0 <VirtualQuery>:
    653833b0:	ff 25 9e 6e 00 00    	jmpq   *0x6e9e(%rip)        # 6538a254 <__imp_VirtualQuery>
    653833b6:	90                   	nop
    653833b7:	90                   	nop

00000000653833b8 <VirtualProtect>:
    653833b8:	ff 25 8e 6e 00 00    	jmpq   *0x6e8e(%rip)        # 6538a24c <__imp_VirtualProtect>
    653833be:	90                   	nop
    653833bf:	90                   	nop

00000000653833c0 <UnhandledExceptionFilter>:
    653833c0:	ff 25 7e 6e 00 00    	jmpq   *0x6e7e(%rip)        # 6538a244 <__imp_UnhandledExceptionFilter>
    653833c6:	90                   	nop
    653833c7:	90                   	nop

00000000653833c8 <TlsGetValue>:
    653833c8:	ff 25 6e 6e 00 00    	jmpq   *0x6e6e(%rip)        # 6538a23c <__imp_TlsGetValue>
    653833ce:	90                   	nop
    653833cf:	90                   	nop

00000000653833d0 <TerminateProcess>:
    653833d0:	ff 25 5e 6e 00 00    	jmpq   *0x6e5e(%rip)        # 6538a234 <__imp_TerminateProcess>
    653833d6:	90                   	nop
    653833d7:	90                   	nop

00000000653833d8 <Sleep>:
    653833d8:	ff 25 4e 6e 00 00    	jmpq   *0x6e4e(%rip)        # 6538a22c <__imp_Sleep>
    653833de:	90                   	nop
    653833df:	90                   	nop

00000000653833e0 <SetUnhandledExceptionFilter>:
    653833e0:	ff 25 3e 6e 00 00    	jmpq   *0x6e3e(%rip)        # 6538a224 <__imp_SetUnhandledExceptionFilter>
    653833e6:	90                   	nop
    653833e7:	90                   	nop

00000000653833e8 <RtlVirtualUnwind>:
    653833e8:	ff 25 2e 6e 00 00    	jmpq   *0x6e2e(%rip)        # 6538a21c <__imp_RtlVirtualUnwind>
    653833ee:	90                   	nop
    653833ef:	90                   	nop

00000000653833f0 <RtlLookupFunctionEntry>:
    653833f0:	ff 25 1e 6e 00 00    	jmpq   *0x6e1e(%rip)        # 6538a214 <__imp_RtlLookupFunctionEntry>
    653833f6:	90                   	nop
    653833f7:	90                   	nop

00000000653833f8 <RtlCaptureContext>:
    653833f8:	ff 25 0e 6e 00 00    	jmpq   *0x6e0e(%rip)        # 6538a20c <__imp_RtlCaptureContext>
    653833fe:	90                   	nop
    653833ff:	90                   	nop

0000000065383400 <RtlAddFunctionTable>:
    65383400:	ff 25 fe 6d 00 00    	jmpq   *0x6dfe(%rip)        # 6538a204 <__imp_RtlAddFunctionTable>
    65383406:	90                   	nop
    65383407:	90                   	nop

0000000065383408 <QueryPerformanceCounter>:
    65383408:	ff 25 ee 6d 00 00    	jmpq   *0x6dee(%rip)        # 6538a1fc <__imp_QueryPerformanceCounter>
    6538340e:	90                   	nop
    6538340f:	90                   	nop

0000000065383410 <LeaveCriticalSection>:
    65383410:	ff 25 de 6d 00 00    	jmpq   *0x6dde(%rip)        # 6538a1f4 <__imp_LeaveCriticalSection>
    65383416:	90                   	nop
    65383417:	90                   	nop

0000000065383418 <InitializeCriticalSection>:
    65383418:	ff 25 ce 6d 00 00    	jmpq   *0x6dce(%rip)        # 6538a1ec <__imp_InitializeCriticalSection>
    6538341e:	90                   	nop
    6538341f:	90                   	nop

0000000065383420 <GetTickCount>:
    65383420:	ff 25 be 6d 00 00    	jmpq   *0x6dbe(%rip)        # 6538a1e4 <__imp_GetTickCount>
    65383426:	90                   	nop
    65383427:	90                   	nop

0000000065383428 <GetSystemTimeAsFileTime>:
    65383428:	ff 25 ae 6d 00 00    	jmpq   *0x6dae(%rip)        # 6538a1dc <__imp_GetSystemTimeAsFileTime>
    6538342e:	90                   	nop
    6538342f:	90                   	nop

0000000065383430 <GetProcAddress>:
    65383430:	ff 25 9e 6d 00 00    	jmpq   *0x6d9e(%rip)        # 6538a1d4 <__imp_GetProcAddress>
    65383436:	90                   	nop
    65383437:	90                   	nop

0000000065383438 <GetModuleHandleA>:
    65383438:	ff 25 8e 6d 00 00    	jmpq   *0x6d8e(%rip)        # 6538a1cc <__imp_GetModuleHandleA>
    6538343e:	90                   	nop
    6538343f:	90                   	nop

0000000065383440 <GetLastError>:
    65383440:	ff 25 7e 6d 00 00    	jmpq   *0x6d7e(%rip)        # 6538a1c4 <__imp_GetLastError>
    65383446:	90                   	nop
    65383447:	90                   	nop

0000000065383448 <GetCurrentThreadId>:
    65383448:	ff 25 6e 6d 00 00    	jmpq   *0x6d6e(%rip)        # 6538a1bc <__imp_GetCurrentThreadId>
    6538344e:	90                   	nop
    6538344f:	90                   	nop

0000000065383450 <GetCurrentProcessId>:
    65383450:	ff 25 5e 6d 00 00    	jmpq   *0x6d5e(%rip)        # 6538a1b4 <__imp_GetCurrentProcessId>
    65383456:	90                   	nop
    65383457:	90                   	nop

0000000065383458 <GetCurrentProcess>:
    65383458:	ff 25 4e 6d 00 00    	jmpq   *0x6d4e(%rip)        # 6538a1ac <__imp_GetCurrentProcess>
    6538345e:	90                   	nop
    6538345f:	90                   	nop

0000000065383460 <EnterCriticalSection>:
    65383460:	ff 25 3e 6d 00 00    	jmpq   *0x6d3e(%rip)        # 6538a1a4 <__imp_EnterCriticalSection>
    65383466:	90                   	nop
    65383467:	90                   	nop

0000000065383468 <DeleteCriticalSection>:
    65383468:	ff 25 2e 6d 00 00    	jmpq   *0x6d2e(%rip)        # 6538a19c <__IAT_start__>
    6538346e:	90                   	nop
    6538346f:	90                   	nop

0000000065383470 <printf>:
    65383470:	ff 25 56 6e 00 00    	jmpq   *0x6e56(%rip)        # 6538a2cc <__imp_printf>
    65383476:	90                   	nop
    65383477:	90                   	nop
    65383478:	0f 1f 84 00 00 00 00 	nopl   0x0(%rax,%rax,1)
    6538347f:	00 

0000000065383480 <register_frame_ctor>:
    65383480:	55                   	push   %rbp
    65383481:	48 89 e5             	mov    %rsp,%rbp
    65383484:	5d                   	pop    %rbp
    65383485:	e9 a6 df ff ff       	jmpq   65381430 <__gcc_register_frame>
    6538348a:	90                   	nop
    6538348b:	90                   	nop
    6538348c:	90                   	nop
    6538348d:	90                   	nop
    6538348e:	90                   	nop
    6538348f:	90                   	nop

0000000065383490 <__CTOR_LIST__>:
    65383490:	ff                   	(bad)  
    65383491:	ff                   	(bad)  
    65383492:	ff                   	(bad)  
    65383493:	ff                   	(bad)  
    65383494:	ff                   	(bad)  
    65383495:	ff                   	(bad)  
    65383496:	ff                   	(bad)  
    65383497:	ff 80 34 38 65 00    	incl   0x653834(%rax)

0000000065383498 <.ctors.65535>:
    65383498:	80 34 38 65          	xorb   $0x65,(%rax,%rdi,1)
	...

00000000653834a8 <__DTOR_LIST__>:
    653834a8:	ff                   	(bad)  
    653834a9:	ff                   	(bad)  
    653834aa:	ff                   	(bad)  
    653834ab:	ff                   	(bad)  
    653834ac:	ff                   	(bad)  
    653834ad:	ff                   	(bad)  
    653834ae:	ff                   	(bad)  
    653834af:	ff 00                	incl   (%rax)
    653834b1:	00 00                	add    %al,(%rax)
    653834b3:	00 00                	add    %al,(%rax)
    653834b5:	00 00                	add    %al,(%rax)
	...

Disassembly of section .rdata:

0000000065385000 <.rdata>:
    65385000:	6c                   	insb   (%dx),%es:(%rdi)
    65385001:	69 62 67 63 6a 2d 31 	imul   $0x312d6a63,0x67(%rdx),%esp
    65385008:	36 2e 64 6c          	ss cs fs insb (%dx),%es:(%rdi)
    6538500c:	6c                   	insb   (%dx),%es:(%rdi)
    6538500d:	00 5f 4a             	add    %bl,0x4a(%rdi)
    65385010:	76 5f                	jbe    65385071 <.rdata+0x1>
    65385012:	52                   	push   %rdx
    65385013:	65 67 69 73 74 65 72 	imul   $0x6c437265,%gs:0x74(%ebx),%esi
    6538501a:	43 6c 
    6538501c:	61                   	(bad)  
    6538501d:	73 73                	jae    65385092 <.rdata+0x22>
    6538501f:	65 73 00             	gs jae 65385022 <.rdata+0x22>
	...

0000000065385030 <.rdata>:
    65385030:	5b                   	pop    %rbx
    65385031:	25 31 2e 32 66       	and    $0x66322e31,%eax
    65385036:	20 25 31 2e 32 66    	and    %ah,0x66322e31(%rip)        # cb6a7e6d <.debug_ranges+0x66306acd>
    6538503c:	20 25 31 2e 32 66    	and    %ah,0x66322e31(%rip)        # cb6a7e73 <.debug_ranges+0x66306ad3>
    65385042:	20 25 31 2e 32 66    	and    %ah,0x66322e31(%rip)        # cb6a7e79 <.debug_ranges+0x66306ad9>
    65385048:	5d                   	pop    %rbp
    65385049:	0a 00                	or     (%rax),%al
    6538504b:	00 00                	add    %al,(%rax)
    6538504d:	00 00                	add    %al,(%rax)
	...

0000000065385050 <GS_ExceptionPointers>:
    65385050:	00 85 38 65 00 00    	add    %al,0x6538(%rbp)
    65385056:	00 00                	add    %al,(%rax)
    65385058:	20 80 38 65 00 00    	and    %al,0x6538(%rax)
	...

0000000065385060 <__dyn_tls_init_callback>:
    65385060:	30 22                	xor    %ah,(%rdx)
    65385062:	38 65 00             	cmp    %ah,0x0(%rbp)
	...

0000000065385070 <.rdata>:
    65385070:	4d 69 6e 67 77 2d 77 	imul   $0x36772d77,0x67(%r14),%r13
    65385077:	36 
    65385078:	34 20                	xor    $0x20,%al
    6538507a:	72 75                	jb     653850f1 <.rdata+0x81>
    6538507c:	6e                   	outsb  %ds:(%rsi),(%dx)
    6538507d:	74 69                	je     653850e8 <.rdata+0x78>
    6538507f:	6d                   	insl   (%dx),%es:(%rdi)
    65385080:	65 20 66 61          	and    %ah,%gs:0x61(%rsi)
    65385084:	69 6c 75 72 65 3a 0a 	imul   $0xa3a65,0x72(%rbp,%rsi,2),%ebp
    6538508b:	00 
    6538508c:	00 00                	add    %al,(%rax)
    6538508e:	00 00                	add    %al,(%rax)
    65385090:	41                   	rex.B
    65385091:	64 64 72 65          	fs fs jb 653850fa <.rdata+0x8a>
    65385095:	73 73                	jae    6538510a <.rdata+0x9a>
    65385097:	20 25 70 20 68 61    	and    %ah,0x61682070(%rip)        # c6a0710d <.debug_ranges+0x61665d6d>
    6538509d:	73 20                	jae    653850bf <.rdata+0x4f>
    6538509f:	6e                   	outsb  %ds:(%rsi),(%dx)
    653850a0:	6f                   	outsl  %ds:(%rsi),(%dx)
    653850a1:	20 69 6d             	and    %ch,0x6d(%rcx)
    653850a4:	61                   	(bad)  
    653850a5:	67 65 2d 73 65 63 74 	addr32 gs sub $0x74636573,%eax
    653850ac:	69 6f 6e 00 20 20 56 	imul   $0x56202000,0x6e(%rdi),%ebp
    653850b3:	69 72 74 75 61 6c 51 	imul   $0x516c6175,0x74(%rdx),%esi
    653850ba:	75 65                	jne    65385121 <.rdata+0xb1>
    653850bc:	72 79                	jb     65385137 <.rdata+0xc7>
    653850be:	20 66 61             	and    %ah,0x61(%rsi)
    653850c1:	69 6c 65 64 20 66 6f 	imul   $0x726f6620,0x64(%rbp,%riz,2),%ebp
    653850c8:	72 
    653850c9:	20 25 64 20 62 79    	and    %ah,0x79622064(%rip)        # de9a7133 <.debug_ranges+0x79605d93>
    653850cf:	74 65                	je     65385136 <.rdata+0xc6>
    653850d1:	73 20                	jae    653850f3 <.rdata+0x83>
    653850d3:	61                   	(bad)  
    653850d4:	74 20                	je     653850f6 <.rdata+0x86>
    653850d6:	61                   	(bad)  
    653850d7:	64 64 72 65          	fs fs jb 65385140 <.rdata+0xd0>
    653850db:	73 73                	jae    65385150 <.rdata+0xe0>
    653850dd:	20 25 70 00 00 00    	and    %ah,0x70(%rip)        # 65385153 <.rdata+0xe3>
    653850e3:	00 00                	add    %al,(%rax)
    653850e5:	00 00                	add    %al,(%rax)
    653850e7:	00 20                	add    %ah,(%rax)
    653850e9:	20 56 69             	and    %dl,0x69(%rsi)
    653850ec:	72 74                	jb     65385162 <.rdata+0xf2>
    653850ee:	75 61                	jne    65385151 <.rdata+0xe1>
    653850f0:	6c                   	insb   (%dx),%es:(%rdi)
    653850f1:	50                   	push   %rax
    653850f2:	72 6f                	jb     65385163 <.rdata+0xf3>
    653850f4:	74 65                	je     6538515b <.rdata+0xeb>
    653850f6:	63 74 20 66          	movslq 0x66(%rax,%riz,1),%esi
    653850fa:	61                   	(bad)  
    653850fb:	69 6c 65 64 20 77 69 	imul   $0x74697720,0x64(%rbp,%riz,2),%ebp
    65385102:	74 
    65385103:	68 20 63 6f 64       	pushq  $0x646f6320
    65385108:	65 20 30             	and    %dh,%gs:(%rax)
    6538510b:	78 25                	js     65385132 <.rdata+0xc2>
    6538510d:	78 00                	js     6538510f <.rdata+0x9f>
    6538510f:	00 20                	add    %ah,(%rax)
    65385111:	20 55 6e             	and    %dl,0x6e(%rbp)
    65385114:	6b 6e 6f 77          	imul   $0x77,0x6f(%rsi),%ebp
    65385118:	6e                   	outsb  %ds:(%rsi),(%dx)
    65385119:	20 70 73             	and    %dh,0x73(%rax)
    6538511c:	65 75 64             	gs jne 65385183 <.rdata+0x3>
    6538511f:	6f                   	outsl  %ds:(%rsi),(%dx)
    65385120:	20 72 65             	and    %dh,0x65(%rdx)
    65385123:	6c                   	insb   (%dx),%es:(%rdi)
    65385124:	6f                   	outsl  %ds:(%rsi),(%dx)
    65385125:	63 61 74             	movslq 0x74(%rcx),%esp
    65385128:	69 6f 6e 20 70 72 6f 	imul   $0x6f727020,0x6e(%rdi),%ebp
    6538512f:	74 6f                	je     653851a0 <.refptr.__CTOR_LIST__>
    65385131:	63 6f 6c             	movslq 0x6c(%rdi),%ebp
    65385134:	20 76 65             	and    %dh,0x65(%rsi)
    65385137:	72 73                	jb     653851ac <.refptr.__CTOR_LIST__+0xc>
    65385139:	69 6f 6e 20 25 64 2e 	imul   $0x2e642520,0x6e(%rdi),%ebp
    65385140:	0a 00                	or     (%rax),%al
    65385142:	00 00                	add    %al,(%rax)
    65385144:	00 00                	add    %al,(%rax)
    65385146:	00 00                	add    %al,(%rax)
    65385148:	20 20                	and    %ah,(%rax)
    6538514a:	55                   	push   %rbp
    6538514b:	6e                   	outsb  %ds:(%rsi),(%dx)
    6538514c:	6b 6e 6f 77          	imul   $0x77,0x6f(%rsi),%ebp
    65385150:	6e                   	outsb  %ds:(%rsi),(%dx)
    65385151:	20 70 73             	and    %dh,0x73(%rax)
    65385154:	65 75 64             	gs jne 653851bb <.refptr.__RUNTIME_PSEUDO_RELOC_LIST_END__+0xb>
    65385157:	6f                   	outsl  %ds:(%rsi),(%dx)
    65385158:	20 72 65             	and    %dh,0x65(%rdx)
    6538515b:	6c                   	insb   (%dx),%es:(%rdi)
    6538515c:	6f                   	outsl  %ds:(%rsi),(%dx)
    6538515d:	63 61 74             	movslq 0x74(%rcx),%esp
    65385160:	69 6f 6e 20 62 69 74 	imul   $0x74696220,0x6e(%rdi),%ebp
    65385167:	20 73 69             	and    %dh,0x69(%rbx)
    6538516a:	7a 65                	jp     653851d1 <.refptr.__dyn_tls_init_callback+0x1>
    6538516c:	20 25 64 2e 0a 00    	and    %ah,0xa2e64(%rip)        # 65427fd6 <.debug_ranges+0x86c36>
	...

0000000065385180 <.rdata>:
    65385180:	2e 70 64             	jo,pn  653851e7 <.refptr.__image_base__+0x7>
    65385183:	61                   	(bad)  
    65385184:	74 61                	je     653851e7 <.refptr.__image_base__+0x7>
	...

0000000065385190 <.refptr._CRT_MT>:
    65385190:	20 40 38             	and    %al,0x38(%rax)
    65385193:	65 00 00             	add    %al,%gs:(%rax)
	...

00000000653851a0 <.refptr.__CTOR_LIST__>:
    653851a0:	90                   	nop
    653851a1:	34 38                	xor    $0x38,%al
    653851a3:	65 00 00             	add    %al,%gs:(%rax)
	...

00000000653851b0 <.refptr.__RUNTIME_PSEUDO_RELOC_LIST_END__>:
    653851b0:	90                   	nop
    653851b1:	56                   	push   %rsi
    653851b2:	38 65 00             	cmp    %ah,0x0(%rbp)
	...

00000000653851c0 <.refptr.__RUNTIME_PSEUDO_RELOC_LIST__>:
    653851c0:	90                   	nop
    653851c1:	56                   	push   %rsi
    653851c2:	38 65 00             	cmp    %ah,0x0(%rbp)
	...

00000000653851d0 <.refptr.__dyn_tls_init_callback>:
    653851d0:	60                   	(bad)  
    653851d1:	50                   	push   %rax
    653851d2:	38 65 00             	cmp    %ah,0x0(%rbp)
	...

00000000653851e0 <.refptr.__image_base__>:
    653851e0:	00 00                	add    %al,(%rax)
    653851e2:	38 65 00             	cmp    %ah,0x0(%rbp)
	...

00000000653851f0 <.refptr.__imp__onexit>:
    653851f0:	8c a2 38 65 00 00    	mov    %fs,0x6538(%rdx)
	...

0000000065385200 <.refptr.__native_dllmain_reason>:
    65385200:	14 40                	adc    $0x40,%al
    65385202:	38 65 00             	cmp    %ah,0x0(%rbp)
	...

0000000065385210 <.refptr.__native_startup_lock>:
    65385210:	08 89 38 65 00 00    	or     %cl,0x6538(%rcx)
	...

0000000065385220 <.refptr.__native_startup_state>:
    65385220:	00 89 38 65 00 00    	add    %cl,0x6538(%rcx)
	...

0000000065385230 <.refptr.__onexitbegin>:
    65385230:	f0 88 38             	lock mov %bh,(%rax)
    65385233:	65 00 00             	add    %al,%gs:(%rax)
	...

0000000065385240 <.refptr.__onexitend>:
    65385240:	f8                   	clc    
    65385241:	88 38                	mov    %bh,(%rax)
    65385243:	65 00 00             	add    %al,%gs:(%rax)
	...

0000000065385250 <.refptr.__xc_a>:
    65385250:	00 b0 38 65 00 00    	add    %dh,0x6538(%rax)
	...

0000000065385260 <.refptr.__xc_z>:
    65385260:	08 b0 38 65 00 00    	or     %dh,0x6538(%rax)
	...

0000000065385270 <.refptr.__xi_a>:
    65385270:	10 b0 38 65 00 00    	adc    %dh,0x6538(%rax)
	...

0000000065385280 <.refptr.__xi_z>:
    65385280:	20 b0 38 65 00 00    	and    %dh,0x6538(%rax)
	...

0000000065385290 <.refptr.mingw_app_type>:
    65385290:	b0 85                	mov    $0x85,%al
    65385292:	38 65 00             	cmp    %ah,0x0(%rbp)
	...

00000000653852a0 <.rdata$zzz>:
    653852a0:	47                   	rex.RXB
    653852a1:	43                   	rex.XB
    653852a2:	43 3a 20             	rex.XB cmp (%r8),%spl
    653852a5:	28 52 65             	sub    %dl,0x65(%rdx)
    653852a8:	76 34                	jbe    653852de <.rdata$zzz+0xe>
    653852aa:	2c 20                	sub    $0x20,%al
    653852ac:	42 75 69             	rex.X jne 65385318 <.rdata$zzz+0x18>
    653852af:	6c                   	insb   (%dx),%es:(%rdi)
    653852b0:	74 20                	je     653852d2 <.rdata$zzz+0x2>
    653852b2:	62                   	(bad)  
    653852b3:	79 20                	jns    653852d5 <.rdata$zzz+0x5>
    653852b5:	4d 53                	rex.WRB push %r11
    653852b7:	59                   	pop    %rcx
    653852b8:	53                   	push   %rbx
    653852b9:	32 20                	xor    (%rax),%ah
    653852bb:	70 72                	jo     6538532f <.rdata$zzz+0x2f>
    653852bd:	6f                   	outsl  %ds:(%rsi),(%dx)
    653852be:	6a 65                	pushq  $0x65
    653852c0:	63 74 29 20          	movslq 0x20(%rcx,%rbp,1),%esi
    653852c4:	35 2e 32 2e 30       	xor    $0x302e322e,%eax
    653852c9:	00 00                	add    %al,(%rax)
    653852cb:	00 00                	add    %al,(%rax)
    653852cd:	00 00                	add    %al,(%rax)
	...

00000000653852d0 <.rdata$zzz>:
    653852d0:	47                   	rex.RXB
    653852d1:	43                   	rex.XB
    653852d2:	43 3a 20             	rex.XB cmp (%r8),%spl
    653852d5:	28 52 65             	sub    %dl,0x65(%rdx)
    653852d8:	76 31                	jbe    6538530b <.rdata$zzz+0xb>
    653852da:	2c 20                	sub    $0x20,%al
    653852dc:	42 75 69             	rex.X jne 65385348 <.rdata$zzz+0x18>
    653852df:	6c                   	insb   (%dx),%es:(%rdi)
    653852e0:	74 20                	je     65385302 <.rdata$zzz+0x2>
    653852e2:	62                   	(bad)  
    653852e3:	79 20                	jns    65385305 <.rdata$zzz+0x5>
    653852e5:	4d 53                	rex.WRB push %r11
    653852e7:	59                   	pop    %rcx
    653852e8:	53                   	push   %rbx
    653852e9:	32 20                	xor    (%rax),%ah
    653852eb:	70 72                	jo     6538535f <.rdata$zzz+0x2f>
    653852ed:	6f                   	outsl  %ds:(%rsi),(%dx)
    653852ee:	6a 65                	pushq  $0x65
    653852f0:	63 74 29 20          	movslq 0x20(%rcx,%rbp,1),%esi
    653852f4:	35 2e 33 2e 30       	xor    $0x302e332e,%eax
    653852f9:	00 00                	add    %al,(%rax)
    653852fb:	00 00                	add    %al,(%rax)
    653852fd:	00 00                	add    %al,(%rax)
	...

0000000065385300 <.rdata$zzz>:
    65385300:	47                   	rex.RXB
    65385301:	43                   	rex.XB
    65385302:	43 3a 20             	rex.XB cmp (%r8),%spl
    65385305:	28 52 65             	sub    %dl,0x65(%rdx)
    65385308:	76 31                	jbe    6538533b <.rdata$zzz+0xb>
    6538530a:	2c 20                	sub    $0x20,%al
    6538530c:	42 75 69             	rex.X jne 65385378 <.rdata$zzz+0x18>
    6538530f:	6c                   	insb   (%dx),%es:(%rdi)
    65385310:	74 20                	je     65385332 <.rdata$zzz+0x2>
    65385312:	62                   	(bad)  
    65385313:	79 20                	jns    65385335 <.rdata$zzz+0x5>
    65385315:	4d 53                	rex.WRB push %r11
    65385317:	59                   	pop    %rcx
    65385318:	53                   	push   %rbx
    65385319:	32 20                	xor    (%rax),%ah
    6538531b:	70 72                	jo     6538538f <.rdata$zzz+0x2f>
    6538531d:	6f                   	outsl  %ds:(%rsi),(%dx)
    6538531e:	6a 65                	pushq  $0x65
    65385320:	63 74 29 20          	movslq 0x20(%rcx,%rbp,1),%esi
    65385324:	35 2e 33 2e 30       	xor    $0x302e332e,%eax
    65385329:	00 00                	add    %al,(%rax)
    6538532b:	00 00                	add    %al,(%rax)
    6538532d:	00 00                	add    %al,(%rax)
	...

0000000065385330 <.rdata$zzz>:
    65385330:	47                   	rex.RXB
    65385331:	43                   	rex.XB
    65385332:	43 3a 20             	rex.XB cmp (%r8),%spl
    65385335:	28 52 65             	sub    %dl,0x65(%rdx)
    65385338:	76 34                	jbe    6538536e <.rdata$zzz+0xe>
    6538533a:	2c 20                	sub    $0x20,%al
    6538533c:	42 75 69             	rex.X jne 653853a8 <.rdata$zzz+0x18>
    6538533f:	6c                   	insb   (%dx),%es:(%rdi)
    65385340:	74 20                	je     65385362 <.rdata$zzz+0x2>
    65385342:	62                   	(bad)  
    65385343:	79 20                	jns    65385365 <.rdata$zzz+0x5>
    65385345:	4d 53                	rex.WRB push %r11
    65385347:	59                   	pop    %rcx
    65385348:	53                   	push   %rbx
    65385349:	32 20                	xor    (%rax),%ah
    6538534b:	70 72                	jo     653853bf <.rdata$zzz+0x2f>
    6538534d:	6f                   	outsl  %ds:(%rsi),(%dx)
    6538534e:	6a 65                	pushq  $0x65
    65385350:	63 74 29 20          	movslq 0x20(%rcx,%rbp,1),%esi
    65385354:	35 2e 32 2e 30       	xor    $0x302e322e,%eax
    65385359:	00 00                	add    %al,(%rax)
    6538535b:	00 00                	add    %al,(%rax)
    6538535d:	00 00                	add    %al,(%rax)
	...

0000000065385360 <.rdata$zzz>:
    65385360:	47                   	rex.RXB
    65385361:	43                   	rex.XB
    65385362:	43 3a 20             	rex.XB cmp (%r8),%spl
    65385365:	28 52 65             	sub    %dl,0x65(%rdx)
    65385368:	76 34                	jbe    6538539e <.rdata$zzz+0xe>
    6538536a:	2c 20                	sub    $0x20,%al
    6538536c:	42 75 69             	rex.X jne 653853d8 <.rdata$zzz+0x18>
    6538536f:	6c                   	insb   (%dx),%es:(%rdi)
    65385370:	74 20                	je     65385392 <.rdata$zzz+0x2>
    65385372:	62                   	(bad)  
    65385373:	79 20                	jns    65385395 <.rdata$zzz+0x5>
    65385375:	4d 53                	rex.WRB push %r11
    65385377:	59                   	pop    %rcx
    65385378:	53                   	push   %rbx
    65385379:	32 20                	xor    (%rax),%ah
    6538537b:	70 72                	jo     653853ef <.rdata$zzz+0x2f>
    6538537d:	6f                   	outsl  %ds:(%rsi),(%dx)
    6538537e:	6a 65                	pushq  $0x65
    65385380:	63 74 29 20          	movslq 0x20(%rcx,%rbp,1),%esi
    65385384:	35 2e 32 2e 30       	xor    $0x302e322e,%eax
    65385389:	00 00                	add    %al,(%rax)
    6538538b:	00 00                	add    %al,(%rax)
    6538538d:	00 00                	add    %al,(%rax)
	...

0000000065385390 <.rdata$zzz>:
    65385390:	47                   	rex.RXB
    65385391:	43                   	rex.XB
    65385392:	43 3a 20             	rex.XB cmp (%r8),%spl
    65385395:	28 52 65             	sub    %dl,0x65(%rdx)
    65385398:	76 34                	jbe    653853ce <.rdata$zzz+0xe>
    6538539a:	2c 20                	sub    $0x20,%al
    6538539c:	42 75 69             	rex.X jne 65385408 <.rdata$zzz+0x18>
    6538539f:	6c                   	insb   (%dx),%es:(%rdi)
    653853a0:	74 20                	je     653853c2 <.rdata$zzz+0x2>
    653853a2:	62                   	(bad)  
    653853a3:	79 20                	jns    653853c5 <.rdata$zzz+0x5>
    653853a5:	4d 53                	rex.WRB push %r11
    653853a7:	59                   	pop    %rcx
    653853a8:	53                   	push   %rbx
    653853a9:	32 20                	xor    (%rax),%ah
    653853ab:	70 72                	jo     6538541f <.rdata$zzz+0x2f>
    653853ad:	6f                   	outsl  %ds:(%rsi),(%dx)
    653853ae:	6a 65                	pushq  $0x65
    653853b0:	63 74 29 20          	movslq 0x20(%rcx,%rbp,1),%esi
    653853b4:	35 2e 32 2e 30       	xor    $0x302e322e,%eax
    653853b9:	00 00                	add    %al,(%rax)
    653853bb:	00 00                	add    %al,(%rax)
    653853bd:	00 00                	add    %al,(%rax)
	...

00000000653853c0 <.rdata$zzz>:
    653853c0:	47                   	rex.RXB
    653853c1:	43                   	rex.XB
    653853c2:	43 3a 20             	rex.XB cmp (%r8),%spl
    653853c5:	28 52 65             	sub    %dl,0x65(%rdx)
    653853c8:	76 34                	jbe    653853fe <.rdata$zzz+0xe>
    653853ca:	2c 20                	sub    $0x20,%al
    653853cc:	42 75 69             	rex.X jne 65385438 <.rdata$zzz+0x18>
    653853cf:	6c                   	insb   (%dx),%es:(%rdi)
    653853d0:	74 20                	je     653853f2 <.rdata$zzz+0x2>
    653853d2:	62                   	(bad)  
    653853d3:	79 20                	jns    653853f5 <.rdata$zzz+0x5>
    653853d5:	4d 53                	rex.WRB push %r11
    653853d7:	59                   	pop    %rcx
    653853d8:	53                   	push   %rbx
    653853d9:	32 20                	xor    (%rax),%ah
    653853db:	70 72                	jo     6538544f <.rdata$zzz+0x2f>
    653853dd:	6f                   	outsl  %ds:(%rsi),(%dx)
    653853de:	6a 65                	pushq  $0x65
    653853e0:	63 74 29 20          	movslq 0x20(%rcx,%rbp,1),%esi
    653853e4:	35 2e 32 2e 30       	xor    $0x302e322e,%eax
    653853e9:	00 00                	add    %al,(%rax)
    653853eb:	00 00                	add    %al,(%rax)
    653853ed:	00 00                	add    %al,(%rax)
	...

00000000653853f0 <.rdata$zzz>:
    653853f0:	47                   	rex.RXB
    653853f1:	43                   	rex.XB
    653853f2:	43 3a 20             	rex.XB cmp (%r8),%spl
    653853f5:	28 52 65             	sub    %dl,0x65(%rdx)
    653853f8:	76 34                	jbe    6538542e <.rdata$zzz+0xe>
    653853fa:	2c 20                	sub    $0x20,%al
    653853fc:	42 75 69             	rex.X jne 65385468 <.rdata$zzz+0x18>
    653853ff:	6c                   	insb   (%dx),%es:(%rdi)
    65385400:	74 20                	je     65385422 <.rdata$zzz+0x2>
    65385402:	62                   	(bad)  
    65385403:	79 20                	jns    65385425 <.rdata$zzz+0x5>
    65385405:	4d 53                	rex.WRB push %r11
    65385407:	59                   	pop    %rcx
    65385408:	53                   	push   %rbx
    65385409:	32 20                	xor    (%rax),%ah
    6538540b:	70 72                	jo     6538547f <.rdata$zzz+0x2f>
    6538540d:	6f                   	outsl  %ds:(%rsi),(%dx)
    6538540e:	6a 65                	pushq  $0x65
    65385410:	63 74 29 20          	movslq 0x20(%rcx,%rbp,1),%esi
    65385414:	35 2e 32 2e 30       	xor    $0x302e322e,%eax
    65385419:	00 00                	add    %al,(%rax)
    6538541b:	00 00                	add    %al,(%rax)
    6538541d:	00 00                	add    %al,(%rax)
	...

0000000065385420 <.rdata$zzz>:
    65385420:	47                   	rex.RXB
    65385421:	43                   	rex.XB
    65385422:	43 3a 20             	rex.XB cmp (%r8),%spl
    65385425:	28 52 65             	sub    %dl,0x65(%rdx)
    65385428:	76 34                	jbe    6538545e <.rdata$zzz+0xe>
    6538542a:	2c 20                	sub    $0x20,%al
    6538542c:	42 75 69             	rex.X jne 65385498 <.rdata$zzz+0x18>
    6538542f:	6c                   	insb   (%dx),%es:(%rdi)
    65385430:	74 20                	je     65385452 <.rdata$zzz+0x2>
    65385432:	62                   	(bad)  
    65385433:	79 20                	jns    65385455 <.rdata$zzz+0x5>
    65385435:	4d 53                	rex.WRB push %r11
    65385437:	59                   	pop    %rcx
    65385438:	53                   	push   %rbx
    65385439:	32 20                	xor    (%rax),%ah
    6538543b:	70 72                	jo     653854af <.rdata$zzz+0x2f>
    6538543d:	6f                   	outsl  %ds:(%rsi),(%dx)
    6538543e:	6a 65                	pushq  $0x65
    65385440:	63 74 29 20          	movslq 0x20(%rcx,%rbp,1),%esi
    65385444:	35 2e 32 2e 30       	xor    $0x302e322e,%eax
    65385449:	00 00                	add    %al,(%rax)
    6538544b:	00 00                	add    %al,(%rax)
    6538544d:	00 00                	add    %al,(%rax)
	...

0000000065385450 <.rdata$zzz>:
    65385450:	47                   	rex.RXB
    65385451:	43                   	rex.XB
    65385452:	43 3a 20             	rex.XB cmp (%r8),%spl
    65385455:	28 52 65             	sub    %dl,0x65(%rdx)
    65385458:	76 34                	jbe    6538548e <.rdata$zzz+0xe>
    6538545a:	2c 20                	sub    $0x20,%al
    6538545c:	42 75 69             	rex.X jne 653854c8 <.rdata$zzz+0x18>
    6538545f:	6c                   	insb   (%dx),%es:(%rdi)
    65385460:	74 20                	je     65385482 <.rdata$zzz+0x2>
    65385462:	62                   	(bad)  
    65385463:	79 20                	jns    65385485 <.rdata$zzz+0x5>
    65385465:	4d 53                	rex.WRB push %r11
    65385467:	59                   	pop    %rcx
    65385468:	53                   	push   %rbx
    65385469:	32 20                	xor    (%rax),%ah
    6538546b:	70 72                	jo     653854df <.rdata$zzz+0x2f>
    6538546d:	6f                   	outsl  %ds:(%rsi),(%dx)
    6538546e:	6a 65                	pushq  $0x65
    65385470:	63 74 29 20          	movslq 0x20(%rcx,%rbp,1),%esi
    65385474:	35 2e 32 2e 30       	xor    $0x302e322e,%eax
    65385479:	00 00                	add    %al,(%rax)
    6538547b:	00 00                	add    %al,(%rax)
    6538547d:	00 00                	add    %al,(%rax)
	...

0000000065385480 <.rdata$zzz>:
    65385480:	47                   	rex.RXB
    65385481:	43                   	rex.XB
    65385482:	43 3a 20             	rex.XB cmp (%r8),%spl
    65385485:	28 52 65             	sub    %dl,0x65(%rdx)
    65385488:	76 34                	jbe    653854be <.rdata$zzz+0xe>
    6538548a:	2c 20                	sub    $0x20,%al
    6538548c:	42 75 69             	rex.X jne 653854f8 <.rdata$zzz+0x18>
    6538548f:	6c                   	insb   (%dx),%es:(%rdi)
    65385490:	74 20                	je     653854b2 <.rdata$zzz+0x2>
    65385492:	62                   	(bad)  
    65385493:	79 20                	jns    653854b5 <.rdata$zzz+0x5>
    65385495:	4d 53                	rex.WRB push %r11
    65385497:	59                   	pop    %rcx
    65385498:	53                   	push   %rbx
    65385499:	32 20                	xor    (%rax),%ah
    6538549b:	70 72                	jo     6538550f <.rdata$zzz+0x2f>
    6538549d:	6f                   	outsl  %ds:(%rsi),(%dx)
    6538549e:	6a 65                	pushq  $0x65
    653854a0:	63 74 29 20          	movslq 0x20(%rcx,%rbp,1),%esi
    653854a4:	35 2e 32 2e 30       	xor    $0x302e322e,%eax
    653854a9:	00 00                	add    %al,(%rax)
    653854ab:	00 00                	add    %al,(%rax)
    653854ad:	00 00                	add    %al,(%rax)
	...

00000000653854b0 <.rdata$zzz>:
    653854b0:	47                   	rex.RXB
    653854b1:	43                   	rex.XB
    653854b2:	43 3a 20             	rex.XB cmp (%r8),%spl
    653854b5:	28 52 65             	sub    %dl,0x65(%rdx)
    653854b8:	76 34                	jbe    653854ee <.rdata$zzz+0xe>
    653854ba:	2c 20                	sub    $0x20,%al
    653854bc:	42 75 69             	rex.X jne 65385528 <.rdata$zzz+0x18>
    653854bf:	6c                   	insb   (%dx),%es:(%rdi)
    653854c0:	74 20                	je     653854e2 <.rdata$zzz+0x2>
    653854c2:	62                   	(bad)  
    653854c3:	79 20                	jns    653854e5 <.rdata$zzz+0x5>
    653854c5:	4d 53                	rex.WRB push %r11
    653854c7:	59                   	pop    %rcx
    653854c8:	53                   	push   %rbx
    653854c9:	32 20                	xor    (%rax),%ah
    653854cb:	70 72                	jo     6538553f <.rdata$zzz+0x2f>
    653854cd:	6f                   	outsl  %ds:(%rsi),(%dx)
    653854ce:	6a 65                	pushq  $0x65
    653854d0:	63 74 29 20          	movslq 0x20(%rcx,%rbp,1),%esi
    653854d4:	35 2e 32 2e 30       	xor    $0x302e322e,%eax
    653854d9:	00 00                	add    %al,(%rax)
    653854db:	00 00                	add    %al,(%rax)
    653854dd:	00 00                	add    %al,(%rax)
	...

00000000653854e0 <.rdata$zzz>:
    653854e0:	47                   	rex.RXB
    653854e1:	43                   	rex.XB
    653854e2:	43 3a 20             	rex.XB cmp (%r8),%spl
    653854e5:	28 52 65             	sub    %dl,0x65(%rdx)
    653854e8:	76 34                	jbe    6538551e <.rdata$zzz+0xe>
    653854ea:	2c 20                	sub    $0x20,%al
    653854ec:	42 75 69             	rex.X jne 65385558 <.rdata$zzz+0x18>
    653854ef:	6c                   	insb   (%dx),%es:(%rdi)
    653854f0:	74 20                	je     65385512 <.rdata$zzz+0x2>
    653854f2:	62                   	(bad)  
    653854f3:	79 20                	jns    65385515 <.rdata$zzz+0x5>
    653854f5:	4d 53                	rex.WRB push %r11
    653854f7:	59                   	pop    %rcx
    653854f8:	53                   	push   %rbx
    653854f9:	32 20                	xor    (%rax),%ah
    653854fb:	70 72                	jo     6538556f <.rdata$zzz+0x2f>
    653854fd:	6f                   	outsl  %ds:(%rsi),(%dx)
    653854fe:	6a 65                	pushq  $0x65
    65385500:	63 74 29 20          	movslq 0x20(%rcx,%rbp,1),%esi
    65385504:	35 2e 32 2e 30       	xor    $0x302e322e,%eax
    65385509:	00 00                	add    %al,(%rax)
    6538550b:	00 00                	add    %al,(%rax)
    6538550d:	00 00                	add    %al,(%rax)
	...

0000000065385510 <.rdata$zzz>:
    65385510:	47                   	rex.RXB
    65385511:	43                   	rex.XB
    65385512:	43 3a 20             	rex.XB cmp (%r8),%spl
    65385515:	28 52 65             	sub    %dl,0x65(%rdx)
    65385518:	76 34                	jbe    6538554e <.rdata$zzz+0xe>
    6538551a:	2c 20                	sub    $0x20,%al
    6538551c:	42 75 69             	rex.X jne 65385588 <.rdata$zzz+0x18>
    6538551f:	6c                   	insb   (%dx),%es:(%rdi)
    65385520:	74 20                	je     65385542 <.rdata$zzz+0x2>
    65385522:	62                   	(bad)  
    65385523:	79 20                	jns    65385545 <.rdata$zzz+0x5>
    65385525:	4d 53                	rex.WRB push %r11
    65385527:	59                   	pop    %rcx
    65385528:	53                   	push   %rbx
    65385529:	32 20                	xor    (%rax),%ah
    6538552b:	70 72                	jo     6538559f <.rdata$zzz+0x2f>
    6538552d:	6f                   	outsl  %ds:(%rsi),(%dx)
    6538552e:	6a 65                	pushq  $0x65
    65385530:	63 74 29 20          	movslq 0x20(%rcx,%rbp,1),%esi
    65385534:	35 2e 32 2e 30       	xor    $0x302e322e,%eax
    65385539:	00 00                	add    %al,(%rax)
    6538553b:	00 00                	add    %al,(%rax)
    6538553d:	00 00                	add    %al,(%rax)
	...

0000000065385540 <.rdata$zzz>:
    65385540:	47                   	rex.RXB
    65385541:	43                   	rex.XB
    65385542:	43 3a 20             	rex.XB cmp (%r8),%spl
    65385545:	28 52 65             	sub    %dl,0x65(%rdx)
    65385548:	76 34                	jbe    6538557e <.rdata$zzz+0xe>
    6538554a:	2c 20                	sub    $0x20,%al
    6538554c:	42 75 69             	rex.X jne 653855b8 <.rdata$zzz+0x18>
    6538554f:	6c                   	insb   (%dx),%es:(%rdi)
    65385550:	74 20                	je     65385572 <.rdata$zzz+0x2>
    65385552:	62                   	(bad)  
    65385553:	79 20                	jns    65385575 <.rdata$zzz+0x5>
    65385555:	4d 53                	rex.WRB push %r11
    65385557:	59                   	pop    %rcx
    65385558:	53                   	push   %rbx
    65385559:	32 20                	xor    (%rax),%ah
    6538555b:	70 72                	jo     653855cf <.rdata$zzz+0x2f>
    6538555d:	6f                   	outsl  %ds:(%rsi),(%dx)
    6538555e:	6a 65                	pushq  $0x65
    65385560:	63 74 29 20          	movslq 0x20(%rcx,%rbp,1),%esi
    65385564:	35 2e 32 2e 30       	xor    $0x302e322e,%eax
    65385569:	00 00                	add    %al,(%rax)
    6538556b:	00 00                	add    %al,(%rax)
    6538556d:	00 00                	add    %al,(%rax)
	...

0000000065385570 <.rdata$zzz>:
    65385570:	47                   	rex.RXB
    65385571:	43                   	rex.XB
    65385572:	43 3a 20             	rex.XB cmp (%r8),%spl
    65385575:	28 52 65             	sub    %dl,0x65(%rdx)
    65385578:	76 34                	jbe    653855ae <.rdata$zzz+0xe>
    6538557a:	2c 20                	sub    $0x20,%al
    6538557c:	42 75 69             	rex.X jne 653855e8 <.rdata$zzz+0x18>
    6538557f:	6c                   	insb   (%dx),%es:(%rdi)
    65385580:	74 20                	je     653855a2 <.rdata$zzz+0x2>
    65385582:	62                   	(bad)  
    65385583:	79 20                	jns    653855a5 <.rdata$zzz+0x5>
    65385585:	4d 53                	rex.WRB push %r11
    65385587:	59                   	pop    %rcx
    65385588:	53                   	push   %rbx
    65385589:	32 20                	xor    (%rax),%ah
    6538558b:	70 72                	jo     653855ff <.rdata$zzz+0x2f>
    6538558d:	6f                   	outsl  %ds:(%rsi),(%dx)
    6538558e:	6a 65                	pushq  $0x65
    65385590:	63 74 29 20          	movslq 0x20(%rcx,%rbp,1),%esi
    65385594:	35 2e 32 2e 30       	xor    $0x302e322e,%eax
    65385599:	00 00                	add    %al,(%rax)
    6538559b:	00 00                	add    %al,(%rax)
    6538559d:	00 00                	add    %al,(%rax)
	...

00000000653855a0 <.rdata$zzz>:
    653855a0:	47                   	rex.RXB
    653855a1:	43                   	rex.XB
    653855a2:	43 3a 20             	rex.XB cmp (%r8),%spl
    653855a5:	28 52 65             	sub    %dl,0x65(%rdx)
    653855a8:	76 34                	jbe    653855de <.rdata$zzz+0xe>
    653855aa:	2c 20                	sub    $0x20,%al
    653855ac:	42 75 69             	rex.X jne 65385618 <.rdata$zzz+0x18>
    653855af:	6c                   	insb   (%dx),%es:(%rdi)
    653855b0:	74 20                	je     653855d2 <.rdata$zzz+0x2>
    653855b2:	62                   	(bad)  
    653855b3:	79 20                	jns    653855d5 <.rdata$zzz+0x5>
    653855b5:	4d 53                	rex.WRB push %r11
    653855b7:	59                   	pop    %rcx
    653855b8:	53                   	push   %rbx
    653855b9:	32 20                	xor    (%rax),%ah
    653855bb:	70 72                	jo     6538562f <.rdata$zzz+0x2f>
    653855bd:	6f                   	outsl  %ds:(%rsi),(%dx)
    653855be:	6a 65                	pushq  $0x65
    653855c0:	63 74 29 20          	movslq 0x20(%rcx,%rbp,1),%esi
    653855c4:	35 2e 32 2e 30       	xor    $0x302e322e,%eax
    653855c9:	00 00                	add    %al,(%rax)
    653855cb:	00 00                	add    %al,(%rax)
    653855cd:	00 00                	add    %al,(%rax)
	...

00000000653855d0 <.rdata$zzz>:
    653855d0:	47                   	rex.RXB
    653855d1:	43                   	rex.XB
    653855d2:	43 3a 20             	rex.XB cmp (%r8),%spl
    653855d5:	28 52 65             	sub    %dl,0x65(%rdx)
    653855d8:	76 31                	jbe    6538560b <.rdata$zzz+0xb>
    653855da:	2c 20                	sub    $0x20,%al
    653855dc:	42 75 69             	rex.X jne 65385648 <.rdata$zzz+0x18>
    653855df:	6c                   	insb   (%dx),%es:(%rdi)
    653855e0:	74 20                	je     65385602 <.rdata$zzz+0x2>
    653855e2:	62                   	(bad)  
    653855e3:	79 20                	jns    65385605 <.rdata$zzz+0x5>
    653855e5:	4d 53                	rex.WRB push %r11
    653855e7:	59                   	pop    %rcx
    653855e8:	53                   	push   %rbx
    653855e9:	32 20                	xor    (%rax),%ah
    653855eb:	70 72                	jo     6538565f <.rdata$zzz+0x2f>
    653855ed:	6f                   	outsl  %ds:(%rsi),(%dx)
    653855ee:	6a 65                	pushq  $0x65
    653855f0:	63 74 29 20          	movslq 0x20(%rcx,%rbp,1),%esi
    653855f4:	35 2e 33 2e 30       	xor    $0x302e332e,%eax
    653855f9:	00 00                	add    %al,(%rax)
    653855fb:	00 00                	add    %al,(%rax)
    653855fd:	00 00                	add    %al,(%rax)
	...

0000000065385600 <.rdata$zzz>:
    65385600:	47                   	rex.RXB
    65385601:	43                   	rex.XB
    65385602:	43 3a 20             	rex.XB cmp (%r8),%spl
    65385605:	28 52 65             	sub    %dl,0x65(%rdx)
    65385608:	76 34                	jbe    6538563e <.rdata$zzz+0xe>
    6538560a:	2c 20                	sub    $0x20,%al
    6538560c:	42 75 69             	rex.X jne 65385678 <.rdata$zzz+0x18>
    6538560f:	6c                   	insb   (%dx),%es:(%rdi)
    65385610:	74 20                	je     65385632 <.rdata$zzz+0x2>
    65385612:	62                   	(bad)  
    65385613:	79 20                	jns    65385635 <.rdata$zzz+0x5>
    65385615:	4d 53                	rex.WRB push %r11
    65385617:	59                   	pop    %rcx
    65385618:	53                   	push   %rbx
    65385619:	32 20                	xor    (%rax),%ah
    6538561b:	70 72                	jo     6538568f <.rdata$zzz+0x2f>
    6538561d:	6f                   	outsl  %ds:(%rsi),(%dx)
    6538561e:	6a 65                	pushq  $0x65
    65385620:	63 74 29 20          	movslq 0x20(%rcx,%rbp,1),%esi
    65385624:	35 2e 32 2e 30       	xor    $0x302e322e,%eax
    65385629:	00 00                	add    %al,(%rax)
    6538562b:	00 00                	add    %al,(%rax)
    6538562d:	00 00                	add    %al,(%rax)
	...

0000000065385630 <.rdata$zzz>:
    65385630:	47                   	rex.RXB
    65385631:	43                   	rex.XB
    65385632:	43 3a 20             	rex.XB cmp (%r8),%spl
    65385635:	28 52 65             	sub    %dl,0x65(%rdx)
    65385638:	76 34                	jbe    6538566e <.rdata$zzz+0xe>
    6538563a:	2c 20                	sub    $0x20,%al
    6538563c:	42 75 69             	rex.X jne 653856a8 <__RUNTIME_PSEUDO_RELOC_LIST_END__+0x18>
    6538563f:	6c                   	insb   (%dx),%es:(%rdi)
    65385640:	74 20                	je     65385662 <.rdata$zzz+0x2>
    65385642:	62                   	(bad)  
    65385643:	79 20                	jns    65385665 <.rdata$zzz+0x5>
    65385645:	4d 53                	rex.WRB push %r11
    65385647:	59                   	pop    %rcx
    65385648:	53                   	push   %rbx
    65385649:	32 20                	xor    (%rax),%ah
    6538564b:	70 72                	jo     653856bf <__RUNTIME_PSEUDO_RELOC_LIST_END__+0x2f>
    6538564d:	6f                   	outsl  %ds:(%rsi),(%dx)
    6538564e:	6a 65                	pushq  $0x65
    65385650:	63 74 29 20          	movslq 0x20(%rcx,%rbp,1),%esi
    65385654:	35 2e 32 2e 30       	xor    $0x302e322e,%eax
    65385659:	00 00                	add    %al,(%rax)
    6538565b:	00 00                	add    %al,(%rax)
    6538565d:	00 00                	add    %al,(%rax)
	...

0000000065385660 <.rdata$zzz>:
    65385660:	47                   	rex.RXB
    65385661:	43                   	rex.XB
    65385662:	43 3a 20             	rex.XB cmp (%r8),%spl
    65385665:	28 52 65             	sub    %dl,0x65(%rdx)
    65385668:	76 31                	jbe    6538569b <__RUNTIME_PSEUDO_RELOC_LIST_END__+0xb>
    6538566a:	2c 20                	sub    $0x20,%al
    6538566c:	42 75 69             	rex.X jne 653856d8 <__RUNTIME_PSEUDO_RELOC_LIST_END__+0x48>
    6538566f:	6c                   	insb   (%dx),%es:(%rdi)
    65385670:	74 20                	je     65385692 <__RUNTIME_PSEUDO_RELOC_LIST_END__+0x2>
    65385672:	62                   	(bad)  
    65385673:	79 20                	jns    65385695 <__RUNTIME_PSEUDO_RELOC_LIST_END__+0x5>
    65385675:	4d 53                	rex.WRB push %r11
    65385677:	59                   	pop    %rcx
    65385678:	53                   	push   %rbx
    65385679:	32 20                	xor    (%rax),%ah
    6538567b:	70 72                	jo     653856ef <__RUNTIME_PSEUDO_RELOC_LIST_END__+0x5f>
    6538567d:	6f                   	outsl  %ds:(%rsi),(%dx)
    6538567e:	6a 65                	pushq  $0x65
    65385680:	63 74 29 20          	movslq 0x20(%rcx,%rbp,1),%esi
    65385684:	35 2e 33 2e 30       	xor    $0x302e332e,%eax
    65385689:	00 00                	add    %al,(%rax)
    6538568b:	00 00                	add    %al,(%rax)
    6538568d:	00 00                	add    %al,(%rax)
	...

Disassembly of section .pdata:

0000000065386000 <.pdata>:
    65386000:	00 10                	add    %dl,(%rax)
    65386002:	00 00                	add    %al,(%rax)
    65386004:	4d 10 00             	rex.WRB adc %r8b,(%r8)
    65386007:	00 00                	add    %al,(%rax)
    65386009:	70 00                	jo     6538600b <.pdata+0xb>
    6538600b:	00 50 10             	add    %dl,0x10(%rax)
    6538600e:	00 00                	add    %al,(%rax)
    65386010:	8b 12                	mov    (%rdx),%edx
    65386012:	00 00                	add    %al,(%rax)
    65386014:	08 70 00             	or     %dh,0x0(%rax)
    65386017:	00 90 12 00 00 c9    	add    %dl,-0x36ffffee(%rax)
    6538601d:	13 00                	adc    (%rax),%eax
    6538601f:	00 1c 70             	add    %bl,(%rax,%rsi,2)
    65386022:	00 00                	add    %al,(%rax)
    65386024:	d0 13                	rclb   (%rbx)
    65386026:	00 00                	add    %al,(%rax)
    65386028:	1f                   	(bad)  
    65386029:	14 00                	adc    $0x0,%al
    6538602b:	00 2c 70             	add    %ch,(%rax,%rsi,2)
	...

0000000065386030 <.pdata>:
    65386030:	20 14 00             	and    %dl,(%rax,%rax,1)
    65386033:	00 26                	add    %ah,(%rsi)
    65386035:	14 00                	adc    $0x0,%al
    65386037:	00 34 70             	add    %dh,(%rax,%rsi,2)
    6538603a:	00 00                	add    %al,(%rax)
    6538603c:	30 14 00             	xor    %dl,(%rax,%rax,1)
    6538603f:	00 8c 14 00 00 3c 70 	add    %cl,0x703c0000(%rsp,%rdx,1)
    65386046:	00 00                	add    %al,(%rax)
    65386048:	90                   	nop
    65386049:	14 00                	adc    $0x0,%al
    6538604b:	00 96 14 00 00 48    	add    %dl,0x48000014(%rsi)
    65386051:	70 00                	jo     65386053 <.pdata+0x23>
	...

0000000065386054 <.pdata>:
    65386054:	a0 14 00 00 e9 15 00 	movabs 0x50000015e9000014,%al
    6538605b:	00 50 
    6538605d:	70 00                	jo     6538605f <.pdata+0xb>
    6538605f:	00 f0                	add    %dh,%al
    65386061:	15 00 00 26 18       	adc    $0x18260000,%eax
    65386066:	00 00                	add    %al,(%rax)
    65386068:	54                   	push   %rsp
    65386069:	70 00                	jo     6538606b <.pdata+0x17>
    6538606b:	00 30                	add    %dh,(%rax)
    6538606d:	18 00                	sbb    %al,(%rax)
    6538606f:	00 26                	add    %ah,(%rsi)
    65386071:	19 00                	sbb    %eax,(%rax)
    65386073:	00 5c 70 00          	add    %bl,0x0(%rax,%rsi,2)
    65386077:	00 30                	add    %dh,(%rax)
    65386079:	19 00                	sbb    %eax,(%rax)
    6538607b:	00 d5                	add    %dl,%ch
    6538607d:	1a 00                	sbb    (%rax),%al
    6538607f:	00 60 70             	add    %ah,0x70(%rax)
    65386082:	00 00                	add    %al,(%rax)
    65386084:	d5                   	(bad)  
    65386085:	1a 00                	sbb    (%rax),%al
    65386087:	00 74 1b 00          	add    %dh,0x0(%rbx,%rbx,1)
    6538608b:	00 70 70             	add    %dh,0x70(%rax)
    6538608e:	00 00                	add    %al,(%rax)
    65386090:	74 1b                	je     653860ad <.pdata+0x59>
    65386092:	00 00                	add    %al,(%rax)
    65386094:	69 1c 00 00 74 70 00 	imul   $0x707400,(%rax,%rax,1),%ebx
    6538609b:	00 70 1c             	add    %dh,0x1c(%rax)
    6538609e:	00 00                	add    %al,(%rax)
    653860a0:	4a 1d 00 00 8c 70    	rex.WX sbb $0x708c0000,%rax
    653860a6:	00 00                	add    %al,(%rax)
    653860a8:	50                   	push   %rax
    653860a9:	1d 00 00 dd 1d       	sbb    $0x1ddd0000,%eax
    653860ae:	00 00                	add    %al,(%rax)
    653860b0:	a4                   	movsb  %ds:(%rsi),%es:(%rdi)
    653860b1:	70 00                	jo     653860b3 <.pdata+0x5f>
    653860b3:	00 e0                	add    %ah,%al
    653860b5:	1d 00 00 42 1e       	sbb    $0x1e420000,%eax
    653860ba:	00 00                	add    %al,(%rax)
    653860bc:	b4 70                	mov    $0x70,%ah
    653860be:	00 00                	add    %al,(%rax)
    653860c0:	42 1e                	rex.X (bad) 
    653860c2:	00 00                	add    %al,(%rax)
    653860c4:	8e 1e                	mov    (%rsi),%ds
    653860c6:	00 00                	add    %al,(%rax)
    653860c8:	c0                   	(bad)  
    653860c9:	70 00                	jo     653860cb <.pdata+0x77>
	...

00000000653860cc <.pdata>:
    653860cc:	90                   	nop
    653860cd:	1e                   	(bad)  
    653860ce:	00 00                	add    %al,(%rax)
    653860d0:	37                   	(bad)  
    653860d1:	1f                   	(bad)  
    653860d2:	00 00                	add    %al,(%rax)
    653860d4:	c8 70 00 00          	enterq $0x70,$0x0
    653860d8:	40 1f                	rex (bad) 
    653860da:	00 00                	add    %al,(%rax)
    653860dc:	59                   	pop    %rcx
    653860dd:	1f                   	(bad)  
    653860de:	00 00                	add    %al,(%rax)
    653860e0:	d0                   	(bad)  
    653860e1:	70 00                	jo     653860e3 <.pdata+0x17>
	...

00000000653860e4 <.pdata>:
    653860e4:	60                   	(bad)  
    653860e5:	1f                   	(bad)  
    653860e6:	00 00                	add    %al,(%rax)
    653860e8:	95                   	xchg   %eax,%ebp
    653860e9:	1f                   	(bad)  
    653860ea:	00 00                	add    %al,(%rax)
    653860ec:	d8 70 00             	fdivs  0x0(%rax)
    653860ef:	00 a0 1f 00 00 f5    	add    %ah,-0xaffffe1(%rax)
    653860f5:	1f                   	(bad)  
    653860f6:	00 00                	add    %al,(%rax)
    653860f8:	e0 70                	loopne 6538616a <.pdata+0xe>
    653860fa:	00 00                	add    %al,(%rax)
    653860fc:	00 20                	add    %ah,(%rax)
    653860fe:	00 00                	add    %al,(%rax)
    65386100:	1c 20                	sbb    $0x20,%al
    65386102:	00 00                	add    %al,(%rax)
    65386104:	ec                   	in     (%dx),%al
    65386105:	70 00                	jo     65386107 <.pdata+0x23>
	...

0000000065386108 <.pdata>:
    65386108:	20 20                	and    %ah,(%rax)
    6538610a:	00 00                	add    %al,(%rax)
    6538610c:	f6 20                	mulb   (%rax)
    6538610e:	00 00                	add    %al,(%rax)
    65386110:	f0 70 00             	lock jo 65386113 <.pdata+0xb>
    65386113:	00 00                	add    %al,(%rax)
    65386115:	21 00                	and    %eax,(%rax)
    65386117:	00 fb                	add    %bh,%bl
    65386119:	21 00                	and    %eax,(%rax)
    6538611b:	00 00                	add    %al,(%rax)
    6538611d:	71 00                	jno    6538611f <.pdata+0x17>
	...

0000000065386120 <.pdata>:
    65386120:	00 22                	add    %ah,(%rdx)
    65386122:	00 00                	add    %al,(%rax)
    65386124:	2f                   	(bad)  
    65386125:	22 00                	and    (%rax),%al
    65386127:	00 10                	add    %dl,(%rax)
    65386129:	71 00                	jno    6538612b <.pdata+0xb>
    6538612b:	00 30                	add    %dh,(%rax)
    6538612d:	22 00                	and    (%rax),%al
    6538612f:	00 99 22 00 00 18    	add    %bl,0x18000022(%rcx)
    65386135:	71 00                	jno    65386137 <.pdata+0x17>
    65386137:	00 a0 22 00 00 a3    	add    %ah,-0x5cffffde(%rax)
    6538613d:	22 00                	and    (%rax),%al
    6538613f:	00 24 71             	add    %ah,(%rcx,%rsi,2)
	...

0000000065386144 <.pdata>:
    65386144:	b0 22                	mov    $0x22,%al
    65386146:	00 00                	add    %al,(%rax)
    65386148:	b4 22                	mov    $0x22,%ah
    6538614a:	00 00                	add    %al,(%rax)
    6538614c:	28 71 00             	sub    %dh,0x0(%rcx)
    6538614f:	00 c0                	add    %al,%al
    65386151:	22 00                	and    (%rax),%al
    65386153:	00 c4                	add    %al,%ah
    65386155:	22 00                	and    (%rax),%al
    65386157:	00 2c 71             	add    %ch,(%rcx,%rsi,2)
	...

000000006538615c <.pdata>:
    6538615c:	d0 22                	shlb   (%rdx)
    6538615e:	00 00                	add    %al,(%rax)
    65386160:	31 23                	xor    %esp,(%rbx)
    65386162:	00 00                	add    %al,(%rax)
    65386164:	30 71 00             	xor    %dh,0x0(%rcx)
    65386167:	00 40 23             	add    %al,0x23(%rax)
    6538616a:	00 00                	add    %al,(%rax)
    6538616c:	9f                   	lahf   
    6538616d:	24 00                	and    $0x0,%al
    6538616f:	00 3c 71             	add    %bh,(%rcx,%rsi,2)
    65386172:	00 00                	add    %al,(%rax)
    65386174:	a0 24 00 00 99 27 00 	movabs 0x5000002799000024,%al
    6538617b:	00 50 
    6538617d:	71 00                	jno    6538617f <.pdata+0x23>
	...

0000000065386180 <.pdata>:
    65386180:	a0 27 00 00 38 29 00 	movabs 0x6800002938000027,%al
    65386187:	00 68 
    65386189:	71 00                	jno    6538618b <.pdata+0xb>
    6538618b:	00 40 29             	add    %al,0x29(%rax)
    6538618e:	00 00                	add    %al,(%rax)
    65386190:	2c 2a                	sub    $0x2a,%al
    65386192:	00 00                	add    %al,(%rax)
    65386194:	70 71                	jo     65386207 <.pdata+0x33>
    65386196:	00 00                	add    %al,(%rax)
    65386198:	30 2a                	xor    %ch,(%rdx)
    6538619a:	00 00                	add    %al,(%rax)
    6538619c:	e1 2b                	loope  653861c9 <.pdata+0x25>
    6538619e:	00 00                	add    %al,(%rax)
    653861a0:	80 71 00 00          	xorb   $0x0,0x0(%rcx)

00000000653861a4 <.pdata>:
    653861a4:	f0 2b 00             	lock sub (%rax),%eax
    653861a7:	00 5a 2c             	add    %bl,0x2c(%rdx)
    653861aa:	00 00                	add    %al,(%rax)
    653861ac:	88 71 00             	mov    %dh,0x0(%rcx)
    653861af:	00 60 2c             	add    %ah,0x2c(%rax)
    653861b2:	00 00                	add    %al,(%rax)
    653861b4:	da 2c 00             	fisubrl (%rax,%rax,1)
    653861b7:	00 98 71 00 00 e0    	add    %bl,-0x1fffff8f(%rax)
    653861bd:	2c 00                	sub    $0x0,%al
    653861bf:	00 7c 2d 00          	add    %bh,0x0(%rbp,%rbp,1)
    653861c3:	00 a4 71 00 00 80 2d 	add    %ah,0x2d800000(%rcx,%rsi,2)
    653861ca:	00 00                	add    %al,(%rax)
    653861cc:	5a                   	pop    %rdx
    653861cd:	2e 00 00             	add    %al,%cs:(%rax)
    653861d0:	ac                   	lods   %ds:(%rsi),%al
    653861d1:	71 00                	jno    653861d3 <.pdata+0x2f>
	...

00000000653861d4 <.pdata>:
    653861d4:	60                   	(bad)  
    653861d5:	2e 00 00             	add    %al,%cs:(%rax)
    653861d8:	7f 2e                	jg     65386208 <.pdata+0x34>
    653861da:	00 00                	add    %al,(%rax)
    653861dc:	b4 71                	mov    $0x71,%ah
    653861de:	00 00                	add    %al,(%rax)
    653861e0:	80 2e 00             	subb   $0x0,(%rsi)
    653861e3:	00 92 2e 00 00 b8    	add    %dl,-0x47ffffd2(%rdx)
    653861e9:	71 00                	jno    653861eb <.pdata+0x17>
    653861eb:	00 a0 2e 00 00 e5    	add    %ah,-0x1affffd2(%rax)
    653861f1:	2e 00 00             	add    %al,%cs:(%rax)
    653861f4:	bc 71 00 00 f0       	mov    $0xf0000071,%esp
    653861f9:	2e 00 00             	add    %al,%cs:(%rax)
    653861fc:	8e 2f                	mov    (%rdi),%gs
    653861fe:	00 00                	add    %al,(%rax)
    65386200:	c0                   	(bad)  
    65386201:	71 00                	jno    65386203 <.pdata+0x2f>
    65386203:	00 90 2f 00 00 2b    	add    %dl,0x2b00002f(%rax)
    65386209:	30 00                	xor    %al,(%rax)
    6538620b:	00 cc                	add    %cl,%ah
    6538620d:	71 00                	jno    6538620f <.pdata+0x3b>
    6538620f:	00 30                	add    %dh,(%rax)
    65386211:	30 00                	xor    %al,(%rax)
    65386213:	00 6a 30             	add    %ch,0x30(%rdx)
    65386216:	00 00                	add    %al,(%rax)
    65386218:	d4                   	(bad)  
    65386219:	71 00                	jno    6538621b <.pdata+0x47>
    6538621b:	00 70 30             	add    %dh,0x30(%rax)
    6538621e:	00 00                	add    %al,(%rax)
    65386220:	fb                   	sti    
    65386221:	30 00                	xor    %al,(%rax)
    65386223:	00 dc                	add    %bl,%ah
    65386225:	71 00                	jno    65386227 <.pdata+0x53>
    65386227:	00 00                	add    %al,(%rax)
    65386229:	31 00                	xor    %eax,(%rax)
    6538622b:	00 36                	add    %dh,(%rsi)
    6538622d:	31 00                	xor    %eax,(%rax)
    6538622f:	00 e4                	add    %ah,%ah
    65386231:	71 00                	jno    65386233 <.pdata+0x5f>
    65386233:	00 40 31             	add    %al,0x31(%rax)
    65386236:	00 00                	add    %al,(%rax)
    65386238:	d1                   	(bad)  
    65386239:	31 00                	xor    %eax,(%rax)
    6538623b:	00 ec                	add    %ch,%ah
    6538623d:	71 00                	jno    6538623f <.pdata+0x6b>
    6538623f:	00 e0                	add    %ah,%al
    65386241:	31 00                	xor    %eax,(%rax)
    65386243:	00 aa 32 00 00 f4    	add    %ch,-0xbffffce(%rdx)
    65386249:	71 00                	jno    6538624b <.pdata+0x77>
	...

000000006538624c <.pdata>:
    6538624c:	b0 32                	mov    $0x32,%al
    6538624e:	00 00                	add    %al,(%rax)
    65386250:	b3 32                	mov    $0x32,%bl
    65386252:	00 00                	add    %al,(%rax)
    65386254:	fc                   	cld    
    65386255:	71 00                	jno    65386257 <.pdata+0xb>
	...

0000000065386258 <.pdata>:
    65386258:	00 33                	add    %dh,(%rbx)
    6538625a:	00 00                	add    %al,(%rax)
    6538625c:	06                   	(bad)  
    6538625d:	33 00                	xor    (%rax),%eax
    6538625f:	00 00                	add    %al,(%rax)
    65386261:	72 00                	jb     65386263 <.pdata+0xb>
	...

0000000065386264 <.pdata>:
    65386264:	10 33                	adc    %dh,(%rbx)
    65386266:	00 00                	add    %al,(%rax)
    65386268:	16                   	(bad)  
    65386269:	33 00                	xor    (%rax),%eax
    6538626b:	00 04 72             	add    %al,(%rdx,%rsi,2)
	...

0000000065386270 <.pdata.startup>:
    65386270:	80 34 00 00          	xorb   $0x0,(%rax,%rax,1)
    65386274:	8a 34 00             	mov    (%rax,%rax,1),%dh
    65386277:	00 08                	add    %cl,(%rax)
    65386279:	72 00                	jb     6538627b <.pdata.startup+0xb>
	...

Disassembly of section .xdata:

0000000065387000 <.xdata>:
    65387000:	01 05 02 00 05 32    	add    %eax,0x32050002(%rip)        # 973d7008 <.debug_ranges+0x32035c68>
    65387006:	01 30                	add    %esi,(%rax)
    65387008:	01 0c 07             	add    %ecx,(%rdi,%rax,1)
    6538700b:	00 0c 42             	add    %cl,(%rdx,%rax,2)
    6538700e:	08 30                	or     %dh,(%rax)
    65387010:	07                   	(bad)  
    65387011:	60                   	(bad)  
    65387012:	06                   	(bad)  
    65387013:	70 05                	jo     6538701a <.xdata+0x1a>
    65387015:	50                   	push   %rax
    65387016:	04 c0                	add    $0xc0,%al
    65387018:	02 d0                	add    %al,%dl
    6538701a:	00 00                	add    %al,(%rax)
    6538701c:	01 0a                	add    %ecx,(%rdx)
    6538701e:	06                   	(bad)  
    6538701f:	00 0a                	add    %cl,(%rdx)
    65387021:	32 06                	xor    (%rsi),%al
    65387023:	30 05 60 04 70 03    	xor    %al,0x3700460(%rip)        # 68a87489 <.debug_ranges+0x36e60e9>
    65387029:	50                   	push   %rax
    6538702a:	02 c0                	add    %al,%al
    6538702c:	01 04 01             	add    %eax,(%rcx,%rax,1)
    6538702f:	00 04 82             	add    %al,(%rdx,%rax,4)
	...

0000000065387034 <.xdata>:
    65387034:	01 04 02             	add    %eax,(%rdx,%rax,1)
    65387037:	05 04 03 01 50       	add    $0x50010304,%eax
    6538703c:	01 08                	add    %ecx,(%rax)
    6538703e:	03 05 08 32 04 03    	add    0x3043208(%rip),%eax        # 683ca24c <.debug_ranges+0x3028eac>
    65387044:	01 50 00             	add    %edx,0x0(%rax)
    65387047:	00 01                	add    %al,(%rcx)
    65387049:	04 02                	add    $0x2,%al
    6538704b:	05 04 03 01 50       	add    $0x50010304,%eax

0000000065387050 <.xdata>:
    65387050:	01 00                	add    %eax,(%rax)
    65387052:	00 00                	add    %al,(%rax)
    65387054:	01 01                	add    %eax,(%rcx)
    65387056:	01 00                	add    %eax,(%rax)
    65387058:	01 30                	add    %esi,(%rax)
    6538705a:	00 00                	add    %al,(%rax)
    6538705c:	01 00                	add    %eax,(%rax)
    6538705e:	00 00                	add    %al,(%rax)
    65387060:	01 0d 05 05 0d 68    	add    %ecx,0x680d0505(%rip)        # cd45756b <.debug_ranges+0x680b61cb>
    65387066:	00 00                	add    %al,(%rax)
    65387068:	08 12                	or     %dl,(%rdx)
    6538706a:	04 03                	add    $0x3,%al
    6538706c:	01 50 00             	add    %edx,0x0(%rax)
    6538706f:	00 01                	add    %al,(%rcx)
    65387071:	00 00                	add    %al,(%rax)
    65387073:	00 01                	add    %al,(%rcx)
    65387075:	10 09                	adc    %cl,(%rcx)
    65387077:	00 10                	add    %dl,(%rax)
    65387079:	22 0c 30             	and    (%rax,%rsi,1),%cl
    6538707c:	0b 60 0a             	or     0xa(%rax),%esp
    6538707f:	70 09                	jo     6538708a <.xdata+0x3a>
    65387081:	50                   	push   %rax
    65387082:	08 c0                	or     %al,%al
    65387084:	06                   	(bad)  
    65387085:	d0 04 e0             	rolb   (%rax,%riz,8)
    65387088:	02 f0                	add    %al,%dh
    6538708a:	00 00                	add    %al,(%rax)
    6538708c:	01 10                	add    %edx,(%rax)
    6538708e:	09 00                	or     %eax,(%rax)
    65387090:	10 22                	adc    %ah,(%rdx)
    65387092:	0c 30                	or     $0x30,%al
    65387094:	0b 60 0a             	or     0xa(%rax),%esp
    65387097:	70 09                	jo     653870a2 <.xdata+0x52>
    65387099:	50                   	push   %rax
    6538709a:	08 c0                	or     %al,%al
    6538709c:	06                   	(bad)  
    6538709d:	d0 04 e0             	rolb   (%rax,%riz,8)
    653870a0:	02 f0                	add    %al,%dh
    653870a2:	00 00                	add    %al,(%rax)
    653870a4:	01 08                	add    %ecx,(%rax)
    653870a6:	06                   	(bad)  
    653870a7:	00 08                	add    %cl,(%rax)
    653870a9:	30 07                	xor    %al,(%rdi)
    653870ab:	60                   	(bad)  
    653870ac:	06                   	(bad)  
    653870ad:	70 05                	jo     653870b4 <.xdata+0x64>
    653870af:	50                   	push   %rax
    653870b0:	04 c0                	add    $0xc0,%al
    653870b2:	02 d0                	add    %al,%dl
    653870b4:	01 06                	add    %eax,(%rsi)
    653870b6:	03 00                	add    (%rax),%eax
    653870b8:	06                   	(bad)  
    653870b9:	62 02                	(bad)  
    653870bb:	30 01                	xor    %al,(%rcx)
    653870bd:	60                   	(bad)  
    653870be:	00 00                	add    %al,(%rax)
    653870c0:	01 04 01             	add    %eax,(%rcx,%rax,1)
    653870c3:	00 04 62             	add    %al,(%rdx,%riz,2)
	...

00000000653870c8 <.xdata>:
    653870c8:	01 05 02 00 05 52    	add    %eax,0x52050002(%rip)        # b73d70d0 <.debug_ranges+0x52035d30>
    653870ce:	01 30                	add    %esi,(%rax)
    653870d0:	01 04 01             	add    %eax,(%rcx,%rax,1)
    653870d3:	00 04 42             	add    %al,(%rdx,%rax,2)
	...

00000000653870d8 <.xdata>:
    653870d8:	01 04 01             	add    %eax,(%rcx,%rax,1)
    653870db:	00 04 42             	add    %al,(%rdx,%rax,2)
    653870de:	00 00                	add    %al,(%rax)
    653870e0:	01 06                	add    %eax,(%rsi)
    653870e2:	03 00                	add    (%rax),%eax
    653870e4:	06                   	(bad)  
    653870e5:	42 02 30             	rex.X add (%rax),%sil
    653870e8:	01 60 00             	add    %esp,0x0(%rax)
    653870eb:	00 01                	add    %al,(%rcx)
    653870ed:	00 00                	add    %al,(%rax)
	...

00000000653870f0 <.xdata>:
    653870f0:	01 0a                	add    %ecx,(%rdx)
    653870f2:	06                   	(bad)  
    653870f3:	00 0a                	add    %cl,(%rdx)
    653870f5:	72 06                	jb     653870fd <.xdata+0xd>
    653870f7:	30 05 60 04 70 03    	xor    %al,0x3700460(%rip)        # 68a8755d <.debug_ranges+0x36e61bd>
    653870fd:	50                   	push   %rax
    653870fe:	02 c0                	add    %al,%al
    65387100:	01 0a                	add    %ecx,(%rdx)
    65387102:	05 05 0a d2 06       	add    $0x6d20a05,%eax
    65387107:	03 03                	add    (%rbx),%eax
    65387109:	30 02                	xor    %al,(%rdx)
    6538710b:	60                   	(bad)  
    6538710c:	01 50 00             	add    %edx,0x0(%rax)
	...

0000000065387110 <.xdata>:
    65387110:	01 04 01             	add    %eax,(%rcx,%rax,1)
    65387113:	00 04 42             	add    %al,(%rdx,%rax,2)
    65387116:	00 00                	add    %al,(%rax)
    65387118:	01 06                	add    %eax,(%rsi)
    6538711a:	03 00                	add    (%rax),%eax
    6538711c:	06                   	(bad)  
    6538711d:	42 02 30             	rex.X add (%rax),%sil
    65387120:	01 60 00             	add    %esp,0x0(%rax)
    65387123:	00 01                	add    %al,(%rcx)
    65387125:	00 00                	add    %al,(%rax)
	...

0000000065387128 <.xdata>:
    65387128:	01 00                	add    %eax,(%rax)
    6538712a:	00 00                	add    %al,(%rax)
    6538712c:	01 00                	add    %eax,(%rax)
	...

0000000065387130 <.xdata>:
    65387130:	01 06                	add    %eax,(%rsi)
    65387132:	03 00                	add    (%rax),%eax
    65387134:	06                   	(bad)  
    65387135:	62 02                	(bad)  
    65387137:	30 01                	xor    %al,(%rcx)
    65387139:	60                   	(bad)  
    6538713a:	00 00                	add    %al,(%rax)
    6538713c:	01 0c 07             	add    %ecx,(%rdi,%rax,1)
    6538713f:	00 0c a2             	add    %cl,(%rdx,%riz,4)
    65387142:	08 30                	or     %dh,(%rax)
    65387144:	07                   	(bad)  
    65387145:	60                   	(bad)  
    65387146:	06                   	(bad)  
    65387147:	70 05                	jo     6538714e <.xdata+0x1e>
    65387149:	50                   	push   %rax
    6538714a:	04 c0                	add    $0xc0,%al
    6538714c:	02 d0                	add    %al,%dl
    6538714e:	00 00                	add    %al,(%rax)
    65387150:	01 11                	add    %edx,(%rcx)
    65387152:	09 05 11 b2 0d 03    	or     %eax,0x30db211(%rip)        # 68462369 <.debug_ranges+0x30c0fc9>
    65387158:	0a 30                	or     (%rax),%dh
    6538715a:	09 60 08             	or     %esp,0x8(%rax)
    6538715d:	70 07                	jo     65387166 <.xdata+0x36>
    6538715f:	c0 05 d0 03 e0 01 50 	rolb   $0x50,0x1e003d0(%rip)        # 67187536 <.debug_ranges+0x1de6196>
	...

0000000065387168 <.xdata>:
    65387168:	01 04 01             	add    %eax,(%rcx,%rax,1)
    6538716b:	00 04 42             	add    %al,(%rdx,%rax,2)
    6538716e:	00 00                	add    %al,(%rax)
    65387170:	01 0a                	add    %ecx,(%rdx)
    65387172:	06                   	(bad)  
    65387173:	00 0a                	add    %cl,(%rdx)
    65387175:	32 06                	xor    (%rsi),%al
    65387177:	30 05 60 04 70 03    	xor    %al,0x3700460(%rip)        # 68a875dd <.debug_ranges+0x36e623d>
    6538717d:	50                   	push   %rax
    6538717e:	02 c0                	add    %al,%al
    65387180:	01 05 02 00 05 32    	add    %eax,0x32050002(%rip)        # 973d7188 <.debug_ranges+0x32035de8>
    65387186:	01 30                	add    %esi,(%rax)

0000000065387188 <.xdata>:
    65387188:	01 08                	add    %ecx,(%rax)
    6538718a:	05 00 08 42 04       	add    $0x4420800,%eax
    6538718f:	30 03                	xor    %al,(%rbx)
    65387191:	60                   	(bad)  
    65387192:	02 70 01             	add    0x1(%rax),%dh
    65387195:	50                   	push   %rax
    65387196:	00 00                	add    %al,(%rax)
    65387198:	01 07                	add    %eax,(%rdi)
    6538719a:	04 00                	add    $0x0,%al
    6538719c:	07                   	(bad)  
    6538719d:	32 03                	xor    (%rbx),%al
    6538719f:	30 02                	xor    %al,(%rdx)
    653871a1:	60                   	(bad)  
    653871a2:	01 70 01             	add    %esi,0x1(%rax)
    653871a5:	05 02 00 05 32       	add    $0x32050002,%eax
    653871aa:	01 30                	add    %esi,(%rax)
    653871ac:	01 05 02 00 05 32    	add    %eax,0x32050002(%rip)        # 973d71b4 <.debug_ranges+0x32035e14>
    653871b2:	01 30                	add    %esi,(%rax)

00000000653871b4 <.xdata>:
    653871b4:	01 00                	add    %eax,(%rax)
    653871b6:	00 00                	add    %al,(%rax)
    653871b8:	01 00                	add    %eax,(%rax)
    653871ba:	00 00                	add    %al,(%rax)
    653871bc:	01 00                	add    %eax,(%rax)
    653871be:	00 00                	add    %al,(%rax)
    653871c0:	01 07                	add    %eax,(%rdi)
    653871c2:	04 00                	add    $0x0,%al
    653871c4:	07                   	(bad)  
    653871c5:	32 03                	xor    (%rbx),%al
    653871c7:	30 02                	xor    %al,(%rdx)
    653871c9:	60                   	(bad)  
    653871ca:	01 70 01             	add    %esi,0x1(%rax)
    653871cd:	04 01                	add    $0x1,%al
    653871cf:	00 04 42             	add    %al,(%rdx,%rax,2)
    653871d2:	00 00                	add    %al,(%rax)
    653871d4:	01 04 01             	add    %eax,(%rcx,%rax,1)
    653871d7:	00 04 42             	add    %al,(%rdx,%rax,2)
    653871da:	00 00                	add    %al,(%rax)
    653871dc:	01 04 01             	add    %eax,(%rcx,%rax,1)
    653871df:	00 04 42             	add    %al,(%rdx,%rax,2)
    653871e2:	00 00                	add    %al,(%rax)
    653871e4:	01 04 01             	add    %eax,(%rcx,%rax,1)
    653871e7:	00 04 42             	add    %al,(%rdx,%rax,2)
    653871ea:	00 00                	add    %al,(%rax)
    653871ec:	01 04 01             	add    %eax,(%rcx,%rax,1)
    653871ef:	00 04 42             	add    %al,(%rdx,%rax,2)
    653871f2:	00 00                	add    %al,(%rax)
    653871f4:	01 04 01             	add    %eax,(%rcx,%rax,1)
    653871f7:	00 04 42             	add    %al,(%rdx,%rax,2)
	...

00000000653871fc <.xdata>:
    653871fc:	01 00                	add    %eax,(%rax)
	...

0000000065387200 <.xdata>:
    65387200:	01 00                	add    %eax,(%rax)
	...

0000000065387204 <.xdata>:
    65387204:	01 00                	add    %eax,(%rax)
	...

0000000065387208 <.xdata.startup>:
    65387208:	01 04 02             	add    %eax,(%rdx,%rax,1)
    6538720b:	05 04 03 01 50       	add    $0x50010304,%eax

Disassembly of section .edata:

0000000065389000 <.edata>:
    65389000:	00 00                	add    %al,(%rax)
    65389002:	00 00                	add    %al,(%rax)
    65389004:	4c 8d b4 56 00 00 00 	lea    0x0(%rsi,%rdx,2),%r14
    6538900b:	00 
    6538900c:	8c 90 00 00 01 00    	mov    %ss,0x10000(%rax)
    65389012:	00 00                	add    %al,(%rax)
    65389014:	0a 00                	or     (%rax),%al
    65389016:	00 00                	add    %al,(%rax)
    65389018:	0a 00                	or     (%rax),%al
    6538901a:	00 00                	add    %al,(%rax)
    6538901c:	28 90 00 00 50 90    	sub    %dl,-0x6fb00000(%rax)
    65389022:	00 00                	add    %al,(%rax)
    65389024:	78 90                	js     65388fb6 <__bss_end__+0x686>
    65389026:	00 00                	add    %al,(%rax)
    65389028:	30 19                	xor    %bl,(%rcx)
    6538902a:	00 00                	add    %al,(%rax)
    6538902c:	30 18                	xor    %bl,(%rax)
    6538902e:	00 00                	add    %al,(%rax)
    65389030:	70 1c                	jo     6538904e <.edata+0x4e>
    65389032:	00 00                	add    %al,(%rax)
    65389034:	74 1b                	je     65389051 <.edata+0x51>
    65389036:	00 00                	add    %al,(%rax)
    65389038:	50                   	push   %rax
    65389039:	1d 00 00 a0 14       	sbb    $0x14a00000,%eax
    6538903e:	00 00                	add    %al,(%rax)
    65389040:	f0 15 00 00 d5 1a    	lock adc $0x1ad50000,%eax
    65389046:	00 00                	add    %al,(%rax)
    65389048:	e0 1d                	loopne 65389067 <.edata+0x67>
    6538904a:	00 00                	add    %al,(%rax)
    6538904c:	42 1e                	rex.X (bad) 
    6538904e:	00 00                	add    %al,(%rax)
    65389050:	97                   	xchg   %eax,%edi
    65389051:	90                   	nop
    65389052:	00 00                	add    %al,(%rax)
    65389054:	9f                   	lahf   
    65389055:	90                   	nop
    65389056:	00 00                	add    %al,(%rax)
    65389058:	a9 90 00 00 b4       	test   $0xb4000090,%eax
    6538905d:	90                   	nop
    6538905e:	00 00                	add    %al,(%rax)
    65389060:	c1 90 00 00 d3 90 00 	rcll   $0x0,-0x6f2d0000(%rax)
    65389067:	00 de                	add    %bl,%dh
    65389069:	90                   	nop
    6538906a:	00 00                	add    %al,(%rax)
    6538906c:	e6 90                	out    %al,$0x90
    6538906e:	00 00                	add    %al,(%rax)
    65389070:	f9                   	stc    
    65389071:	90                   	nop
    65389072:	00 00                	add    %al,(%rax)
    65389074:	0a 91 00 00 00 00    	or     0x0(%rcx),%dl
    6538907a:	01 00                	add    %eax,(%rax)
    6538907c:	02 00                	add    (%rax),%al
    6538907e:	03 00                	add    (%rax),%eax
    65389080:	04 00                	add    $0x0,%al
    65389082:	05 00 06 00 07       	add    $0x7000600,%eax
    65389087:	00 08                	add    %cl,(%rax)
    65389089:	00 09                	add    %cl,(%rcx)
    6538908b:	00 6c 69 6e          	add    %ch,0x6e(%rcx,%rbp,2)
    6538908f:	61                   	(bad)  
    65389090:	6c                   	insb   (%dx),%es:(%rdi)
    65389091:	67 2e 64 6c          	cs fs insb (%dx),%es:(%edi)
    65389095:	6c                   	insb   (%dx),%es:(%rdi)
    65389096:	00 4d 78             	add    %cl,0x78(%rbp)
    65389099:	4d 5f                	rex.WRB pop %r15
    6538909b:	34 78                	xor    $0x78,%al
    6538909d:	34 00                	xor    $0x0,%al
    6538909f:	4d 78 4d             	rex.WRB js 653890ef <.edata+0xef>
    653890a2:	5f                   	pop    %rdi
    653890a3:	34 78                	xor    $0x78,%al
    653890a5:	34 5f                	xor    $0x5f,%al
    653890a7:	32 00                	xor    (%rax),%al
    653890a9:	4d 78 4d             	rex.WRB js 653890f9 <.edata+0xf9>
    653890ac:	5f                   	pop    %rdi
    653890ad:	73 71                	jae    65389120 <__bss_end__+0x7f0>
    653890af:	75 61                	jne    65389112 <.edata+0x112>
    653890b1:	72 65                	jb     65389118 <__bss_end__+0x7e8>
    653890b3:	00 4d 78             	add    %cl,0x78(%rbp)
    653890b6:	4d 5f                	rex.WRB pop %r15
    653890b8:	73 71                	jae    6538912b <__bss_end__+0x7fb>
    653890ba:	75 61                	jne    6538911d <__bss_end__+0x7ed>
    653890bc:	72 65                	jb     65389123 <__bss_end__+0x7f3>
    653890be:	5f                   	pop    %rdi
    653890bf:	32 00                	xor    (%rax),%al
    653890c1:	4d 78 4d             	rex.WRB js 65389111 <.edata+0x111>
    653890c4:	5f                   	pop    %rdi
    653890c5:	73 71                	jae    65389138 <__bss_end__+0x808>
    653890c7:	75 61                	jne    6538912a <__bss_end__+0x7fa>
    653890c9:	72 65                	jb     65389130 <__bss_end__+0x800>
    653890cb:	5f                   	pop    %rdi
    653890cc:	73 63                	jae    65389131 <__bss_end__+0x801>
    653890ce:	61                   	(bad)  
    653890cf:	6c                   	insb   (%dx),%es:(%rdi)
    653890d0:	61                   	(bad)  
    653890d1:	72 00                	jb     653890d3 <.edata+0xd3>
    653890d3:	64 6f                	outsl  %fs:(%rsi),(%dx)
    653890d5:	74 5f                	je     65389136 <__bss_end__+0x806>
    653890d7:	73 65                	jae    6538913e <__bss_end__+0x80e>
    653890d9:	72 69                	jb     65389144 <__bss_end__+0x814>
    653890db:	61                   	(bad)  
    653890dc:	6c                   	insb   (%dx),%es:(%rdi)
    653890dd:	00 64 6f 74          	add    %ah,0x74(%rdi,%rbp,2)
    653890e1:	5f                   	pop    %rdi
    653890e2:	76 65                	jbe    65389149 <__bss_end__+0x819>
    653890e4:	63 00                	movslq (%rax),%eax
    653890e6:	6c                   	insb   (%dx),%es:(%rdi)
    653890e7:	6f                   	outsl  %ds:(%rsi),(%dx)
    653890e8:	61                   	(bad)  
    653890e9:	64 5f                	fs pop %rdi
    653890eb:	74 72                	je     6538915f <__bss_end__+0x82f>
    653890ed:	61                   	(bad)  
    653890ee:	6e                   	outsb  %ds:(%rsi),(%dx)
    653890ef:	73 70                	jae    65389161 <__bss_end__+0x831>
    653890f1:	6f                   	outsl  %ds:(%rsi),(%dx)
    653890f2:	73 65                	jae    65389159 <__bss_end__+0x829>
    653890f4:	5f                   	pop    %rdi
    653890f5:	34 78                	xor    $0x78,%al
    653890f7:	34 00                	xor    $0x0,%al
    653890f9:	70 72                	jo     6538916d <__bss_end__+0x83d>
    653890fb:	69 6e 74 5f 6d 61 74 	imul   $0x74616d5f,0x74(%rsi),%ebp
    65389102:	72 69                	jb     6538916d <__bss_end__+0x83d>
    65389104:	78 5f                	js     65389165 <__bss_end__+0x835>
    65389106:	34 78                	xor    $0x78,%al
    65389108:	34 00                	xor    $0x0,%al
    6538910a:	70 72                	jo     6538917e <__bss_end__+0x84e>
    6538910c:	69 6e 74 5f 76 34 64 	imul   $0x6434765f,0x74(%rsi),%ebp
	...

Disassembly of section .idata:

000000006538a000 <_head_lib64_libkernel32_a>:
    6538a000:	3c a0                	cmp    $0xa0,%al
	...
    6538a00a:	00 00                	add    %al,(%rax)
    6538a00c:	18 a6 00 00 9c a1    	sbb    %ah,-0x5e640000(%rsi)
	...

000000006538a014 <_head_lib64_libmsvcrt_a>:
    6538a014:	04 a1                	add    $0xa1,%al
	...
    6538a01e:	00 00                	add    %al,(%rax)
    6538a020:	70 a6                	jo     65389fc8 <__bss_end__+0x1698>
    6538a022:	00 00                	add    %al,(%rax)
    6538a024:	64 a2 00 00 00 00 00 	movabs %al,%fs:0x0
    6538a02b:	00 00 00 
	...

000000006538a03c <hname>:
    6538a03c:	fc                   	cld    
    6538a03d:	a2 00 00 00 00 00 00 	movabs %al,0xa314000000000000
    6538a044:	14 a3 

000000006538a044 <.idata$4>:
    6538a044:	14 a3                	adc    $0xa3,%al
    6538a046:	00 00                	add    %al,(%rax)
    6538a048:	00 00                	add    %al,(%rax)
	...

000000006538a04c <.idata$4>:
    6538a04c:	2c a3                	sub    $0xa3,%al
    6538a04e:	00 00                	add    %al,(%rax)
    6538a050:	00 00                	add    %al,(%rax)
	...

000000006538a054 <.idata$4>:
    6538a054:	40 a3 00 00 00 00 00 	rex movabs %eax,0xa356000000000000
    6538a05b:	00 56 a3 

000000006538a05c <.idata$4>:
    6538a05c:	56                   	push   %rsi
    6538a05d:	a3 00 00 00 00 00 00 	movabs %eax,0xa36c000000000000
    6538a064:	6c a3 

000000006538a064 <.idata$4>:
    6538a064:	6c                   	insb   (%dx),%es:(%rdi)
    6538a065:	a3 00 00 00 00 00 00 	movabs %eax,0xa37c000000000000
    6538a06c:	7c a3 

000000006538a06c <.idata$4>:
    6538a06c:	7c a3                	jl     6538a011 <_head_lib64_libkernel32_a+0x11>
    6538a06e:	00 00                	add    %al,(%rax)
    6538a070:	00 00                	add    %al,(%rax)
	...

000000006538a074 <.idata$4>:
    6538a074:	90                   	nop
    6538a075:	a3 00 00 00 00 00 00 	movabs %eax,0xa3a2000000000000
    6538a07c:	a2 a3 

000000006538a07c <.idata$4>:
    6538a07c:	a2 a3 00 00 00 00 00 	movabs %al,0xbc000000000000a3
    6538a083:	00 bc 

000000006538a084 <.idata$4>:
    6538a084:	bc a3 00 00 00       	mov    $0xa3,%esp
    6538a089:	00 00                	add    %al,(%rax)
	...

000000006538a08c <.idata$4>:
    6538a08c:	cc                   	int3   
    6538a08d:	a3 00 00 00 00 00 00 	movabs %eax,0xa3e8000000000000
    6538a094:	e8 a3 

000000006538a094 <.idata$4>:
    6538a094:	e8 a3 00 00 00       	callq  6538a13c <.idata$4>
    6538a099:	00 00                	add    %al,(%rax)
	...

000000006538a09c <.idata$4>:
    6538a09c:	00 a4 00 00 00 00 00 	add    %ah,0x0(%rax,%rax,1)
	...

000000006538a0a4 <.idata$4>:
    6538a0a4:	1a a4 00 00 00 00 00 	sbb    0x0(%rax,%rax,1),%ah
	...

000000006538a0ac <.idata$4>:
    6538a0ac:	30 a4 00 00 00 00 00 	xor    %ah,0x0(%rax,%rax,1)
	...

000000006538a0b4 <.idata$4>:
    6538a0b4:	44 a4                	rex.R movsb %ds:(%rsi),%es:(%rdi)
    6538a0b6:	00 00                	add    %al,(%rax)
    6538a0b8:	00 00                	add    %al,(%rax)
	...

000000006538a0bc <.idata$4>:
    6538a0bc:	5e                   	pop    %rsi
    6538a0bd:	a4                   	movsb  %ds:(%rsi),%es:(%rdi)
    6538a0be:	00 00                	add    %al,(%rax)
    6538a0c0:	00 00                	add    %al,(%rax)
	...

000000006538a0c4 <.idata$4>:
    6538a0c4:	72 a4                	jb     6538a06a <.idata$4+0x6>
    6538a0c6:	00 00                	add    %al,(%rax)
    6538a0c8:	00 00                	add    %al,(%rax)
	...

000000006538a0cc <.idata$4>:
    6538a0cc:	90                   	nop
    6538a0cd:	a4                   	movsb  %ds:(%rsi),%es:(%rdi)
    6538a0ce:	00 00                	add    %al,(%rax)
    6538a0d0:	00 00                	add    %al,(%rax)
	...

000000006538a0d4 <.idata$4>:
    6538a0d4:	98                   	cwtl   
    6538a0d5:	a4                   	movsb  %ds:(%rsi),%es:(%rdi)
    6538a0d6:	00 00                	add    %al,(%rax)
    6538a0d8:	00 00                	add    %al,(%rax)
	...

000000006538a0dc <.idata$4>:
    6538a0dc:	ac                   	lods   %ds:(%rsi),%al
    6538a0dd:	a4                   	movsb  %ds:(%rsi),%es:(%rdi)
    6538a0de:	00 00                	add    %al,(%rax)
    6538a0e0:	00 00                	add    %al,(%rax)
	...

000000006538a0e4 <.idata$4>:
    6538a0e4:	ba a4 00 00 00       	mov    $0xa4,%edx
    6538a0e9:	00 00                	add    %al,(%rax)
	...

000000006538a0ec <.idata$4>:
    6538a0ec:	d6                   	(bad)  
    6538a0ed:	a4                   	movsb  %ds:(%rsi),%es:(%rdi)
    6538a0ee:	00 00                	add    %al,(%rax)
    6538a0f0:	00 00                	add    %al,(%rax)
	...

000000006538a0f4 <.idata$4>:
    6538a0f4:	e8 a4 00 00 00       	callq  6538a19d <__IAT_start__+0x1>
    6538a0f9:	00 00                	add    %al,(%rax)
	...

000000006538a0fc <.idata$4>:
	...

000000006538a104 <hname>:
    6538a104:	f8                   	clc    
    6538a105:	a4                   	movsb  %ds:(%rsi),%es:(%rdi)
    6538a106:	00 00                	add    %al,(%rax)
    6538a108:	00 00                	add    %al,(%rax)
	...

000000006538a10c <.idata$4>:
    6538a10c:	06                   	(bad)  
    6538a10d:	a5                   	movsl  %ds:(%rsi),%es:(%rdi)
    6538a10e:	00 00                	add    %al,(%rax)
    6538a110:	00 00                	add    %al,(%rax)
	...

000000006538a114 <.idata$4>:
    6538a114:	14 a5                	adc    $0xa5,%al
    6538a116:	00 00                	add    %al,(%rax)
    6538a118:	00 00                	add    %al,(%rax)
	...

000000006538a11c <.idata$4>:
    6538a11c:	22 a5 00 00 00 00    	and    0x0(%rbp),%ah
	...

000000006538a124 <.idata$4>:
    6538a124:	2e a5                	movsl  %cs:(%rsi),%es:(%rdi)
    6538a126:	00 00                	add    %al,(%rax)
    6538a128:	00 00                	add    %al,(%rax)
	...

000000006538a12c <.idata$4>:
    6538a12c:	36 a5                	movsl  %ss:(%rsi),%es:(%rdi)
    6538a12e:	00 00                	add    %al,(%rax)
    6538a130:	00 00                	add    %al,(%rax)
	...

000000006538a134 <.idata$4>:
    6538a134:	40 a5                	rex movsl %ds:(%rsi),%es:(%rdi)
    6538a136:	00 00                	add    %al,(%rax)
    6538a138:	00 00                	add    %al,(%rax)
	...

000000006538a13c <.idata$4>:
    6538a13c:	4a a5                	rex.WX movsq %ds:(%rsi),%es:(%rdi)
    6538a13e:	00 00                	add    %al,(%rax)
    6538a140:	00 00                	add    %al,(%rax)
	...

000000006538a144 <.idata$4>:
    6538a144:	52                   	push   %rdx
    6538a145:	a5                   	movsl  %ds:(%rsi),%es:(%rdi)
    6538a146:	00 00                	add    %al,(%rax)
    6538a148:	00 00                	add    %al,(%rax)
	...

000000006538a14c <.idata$4>:
    6538a14c:	5c                   	pop    %rsp
    6538a14d:	a5                   	movsl  %ds:(%rsi),%es:(%rdi)
    6538a14e:	00 00                	add    %al,(%rax)
    6538a150:	00 00                	add    %al,(%rax)
	...

000000006538a154 <.idata$4>:
    6538a154:	64 a5                	movsl  %fs:(%rsi),%es:(%rdi)
    6538a156:	00 00                	add    %al,(%rax)
    6538a158:	00 00                	add    %al,(%rax)
	...

000000006538a15c <.idata$4>:
    6538a15c:	6e                   	outsb  %ds:(%rsi),(%dx)
    6538a15d:	a5                   	movsl  %ds:(%rsi),%es:(%rdi)
    6538a15e:	00 00                	add    %al,(%rax)
    6538a160:	00 00                	add    %al,(%rax)
	...

000000006538a164 <.idata$4>:
    6538a164:	78 a5                	js     6538a10b <hname+0x7>
    6538a166:	00 00                	add    %al,(%rax)
    6538a168:	00 00                	add    %al,(%rax)
	...

000000006538a16c <.idata$4>:
    6538a16c:	82                   	(bad)  
    6538a16d:	a5                   	movsl  %ds:(%rsi),%es:(%rdi)
    6538a16e:	00 00                	add    %al,(%rax)
    6538a170:	00 00                	add    %al,(%rax)
	...

000000006538a174 <.idata$4>:
    6538a174:	8c a5 00 00 00 00    	mov    %fs,0x0(%rbp)
	...

000000006538a17c <.idata$4>:
    6538a17c:	96                   	xchg   %eax,%esi
    6538a17d:	a5                   	movsl  %ds:(%rsi),%es:(%rdi)
    6538a17e:	00 00                	add    %al,(%rax)
    6538a180:	00 00                	add    %al,(%rax)
	...

000000006538a184 <.idata$4>:
    6538a184:	a0 a5 00 00 00 00 00 	movabs 0xaa000000000000a5,%al
    6538a18b:	00 aa 

000000006538a18c <.idata$4>:
    6538a18c:	aa                   	stos   %al,%es:(%rdi)
    6538a18d:	a5                   	movsl  %ds:(%rsi),%es:(%rdi)
    6538a18e:	00 00                	add    %al,(%rax)
    6538a190:	00 00                	add    %al,(%rax)
	...

000000006538a194 <.idata$4>:
	...

000000006538a19c <__IAT_start__>:
    6538a19c:	fc                   	cld    
    6538a19d:	a2 00 00 00 00 00 00 	movabs %al,0xa314000000000000
    6538a1a4:	14 a3 

000000006538a1a4 <__imp_EnterCriticalSection>:
    6538a1a4:	14 a3                	adc    $0xa3,%al
    6538a1a6:	00 00                	add    %al,(%rax)
    6538a1a8:	00 00                	add    %al,(%rax)
	...

000000006538a1ac <__imp_GetCurrentProcess>:
    6538a1ac:	2c a3                	sub    $0xa3,%al
    6538a1ae:	00 00                	add    %al,(%rax)
    6538a1b0:	00 00                	add    %al,(%rax)
	...

000000006538a1b4 <__imp_GetCurrentProcessId>:
    6538a1b4:	40 a3 00 00 00 00 00 	rex movabs %eax,0xa356000000000000
    6538a1bb:	00 56 a3 

000000006538a1bc <__imp_GetCurrentThreadId>:
    6538a1bc:	56                   	push   %rsi
    6538a1bd:	a3 00 00 00 00 00 00 	movabs %eax,0xa36c000000000000
    6538a1c4:	6c a3 

000000006538a1c4 <__imp_GetLastError>:
    6538a1c4:	6c                   	insb   (%dx),%es:(%rdi)
    6538a1c5:	a3 00 00 00 00 00 00 	movabs %eax,0xa37c000000000000
    6538a1cc:	7c a3 

000000006538a1cc <__imp_GetModuleHandleA>:
    6538a1cc:	7c a3                	jl     6538a171 <.idata$4+0x5>
    6538a1ce:	00 00                	add    %al,(%rax)
    6538a1d0:	00 00                	add    %al,(%rax)
	...

000000006538a1d4 <__imp_GetProcAddress>:
    6538a1d4:	90                   	nop
    6538a1d5:	a3 00 00 00 00 00 00 	movabs %eax,0xa3a2000000000000
    6538a1dc:	a2 a3 

000000006538a1dc <__imp_GetSystemTimeAsFileTime>:
    6538a1dc:	a2 a3 00 00 00 00 00 	movabs %al,0xbc000000000000a3
    6538a1e3:	00 bc 

000000006538a1e4 <__imp_GetTickCount>:
    6538a1e4:	bc a3 00 00 00       	mov    $0xa3,%esp
    6538a1e9:	00 00                	add    %al,(%rax)
	...

000000006538a1ec <__imp_InitializeCriticalSection>:
    6538a1ec:	cc                   	int3   
    6538a1ed:	a3 00 00 00 00 00 00 	movabs %eax,0xa3e8000000000000
    6538a1f4:	e8 a3 

000000006538a1f4 <__imp_LeaveCriticalSection>:
    6538a1f4:	e8 a3 00 00 00       	callq  6538a29c <__imp_abort>
    6538a1f9:	00 00                	add    %al,(%rax)
	...

000000006538a1fc <__imp_QueryPerformanceCounter>:
    6538a1fc:	00 a4 00 00 00 00 00 	add    %ah,0x0(%rax,%rax,1)
	...

000000006538a204 <__imp_RtlAddFunctionTable>:
    6538a204:	1a a4 00 00 00 00 00 	sbb    0x0(%rax,%rax,1),%ah
	...

000000006538a20c <__imp_RtlCaptureContext>:
    6538a20c:	30 a4 00 00 00 00 00 	xor    %ah,0x0(%rax,%rax,1)
	...

000000006538a214 <__imp_RtlLookupFunctionEntry>:
    6538a214:	44 a4                	rex.R movsb %ds:(%rsi),%es:(%rdi)
    6538a216:	00 00                	add    %al,(%rax)
    6538a218:	00 00                	add    %al,(%rax)
	...

000000006538a21c <__imp_RtlVirtualUnwind>:
    6538a21c:	5e                   	pop    %rsi
    6538a21d:	a4                   	movsb  %ds:(%rsi),%es:(%rdi)
    6538a21e:	00 00                	add    %al,(%rax)
    6538a220:	00 00                	add    %al,(%rax)
	...

000000006538a224 <__imp_SetUnhandledExceptionFilter>:
    6538a224:	72 a4                	jb     6538a1ca <__imp_GetLastError+0x6>
    6538a226:	00 00                	add    %al,(%rax)
    6538a228:	00 00                	add    %al,(%rax)
	...

000000006538a22c <__imp_Sleep>:
    6538a22c:	90                   	nop
    6538a22d:	a4                   	movsb  %ds:(%rsi),%es:(%rdi)
    6538a22e:	00 00                	add    %al,(%rax)
    6538a230:	00 00                	add    %al,(%rax)
	...

000000006538a234 <__imp_TerminateProcess>:
    6538a234:	98                   	cwtl   
    6538a235:	a4                   	movsb  %ds:(%rsi),%es:(%rdi)
    6538a236:	00 00                	add    %al,(%rax)
    6538a238:	00 00                	add    %al,(%rax)
	...

000000006538a23c <__imp_TlsGetValue>:
    6538a23c:	ac                   	lods   %ds:(%rsi),%al
    6538a23d:	a4                   	movsb  %ds:(%rsi),%es:(%rdi)
    6538a23e:	00 00                	add    %al,(%rax)
    6538a240:	00 00                	add    %al,(%rax)
	...

000000006538a244 <__imp_UnhandledExceptionFilter>:
    6538a244:	ba a4 00 00 00       	mov    $0xa4,%edx
    6538a249:	00 00                	add    %al,(%rax)
	...

000000006538a24c <__imp_VirtualProtect>:
    6538a24c:	d6                   	(bad)  
    6538a24d:	a4                   	movsb  %ds:(%rsi),%es:(%rdi)
    6538a24e:	00 00                	add    %al,(%rax)
    6538a250:	00 00                	add    %al,(%rax)
	...

000000006538a254 <__imp_VirtualQuery>:
    6538a254:	e8 a4 00 00 00       	callq  6538a2fd <__IAT_end__+0x1>
    6538a259:	00 00                	add    %al,(%rax)
	...

000000006538a25c <.idata$5>:
	...

000000006538a264 <__imp___dllonexit>:
    6538a264:	f8                   	clc    
    6538a265:	a4                   	movsb  %ds:(%rsi),%es:(%rdi)
    6538a266:	00 00                	add    %al,(%rax)
    6538a268:	00 00                	add    %al,(%rax)
	...

000000006538a26c <__imp___iob_func>:
    6538a26c:	06                   	(bad)  
    6538a26d:	a5                   	movsl  %ds:(%rsi),%es:(%rdi)
    6538a26e:	00 00                	add    %al,(%rax)
    6538a270:	00 00                	add    %al,(%rax)
	...

000000006538a274 <__imp__amsg_exit>:
    6538a274:	14 a5                	adc    $0xa5,%al
    6538a276:	00 00                	add    %al,(%rax)
    6538a278:	00 00                	add    %al,(%rax)
	...

000000006538a27c <__imp__initterm>:
